(lp0
(I0
I0
tp1
a(F-3.4456681144140475
F5.707172302441445
tp2
a(F-8.81320002399297
F9.661163405630283
tp3
a(F-15.462112542220066
F10.147380198231543
tp4
a(F-21.74228943452699
F12.384302782001168
tp5
a(F-28.408942799229898
F12.397620414668145
tp6
a(F-34.967673904407945
F13.59239685166982
tp7
a(F-40.63469733412707
F17.103705708984844
tp8
a(F-47.00177560289035
F19.07975195436648
tp9
a(F-53.14753149424908
F21.66318551617407
tp10
a(F-56.103945551463134
F27.63847298764786
tp11
a(F-55.20970419347502
F34.244892353545545
tp12
a(F-51.53941954224103
F39.81027239657591
tp13
a(F-48.35480743019947
F45.6671222444278
tp14
a(F-49.85654091945692
F52.16244679149141
tp15
a(F-52.116670400156245
F58.43430928798464
tp16
a(F-51.18254047225095
F65.0352066301826
tp17
a(F-49.34147592502504
F71.44261841477959
tp18
a(F-44.36437996753314
F75.87803950802004
tp19
a(F-43.73382829525681
F82.51481952795696
tp20
a(F-41.07731441828555
F88.62934146069247
tp21
a(F-38.76651396778549
F94.88271220952971
tp22
a(F-34.08270200245388
F99.62679799267707
tp23
a(F-27.493164863831865
F100.63795809036965
tp24
a(F-22.623211580067295
F105.19075936633098
tp25
a(F-18.992437061129728
F110.78199544049903
tp26
a(F-19.771686505235515
F117.40296325104646
tp27
a(F-23.48043683728676
F122.9427841343381
tp28
a(F-22.601876765227
F129.55130716480616
tp29
a(F-19.449085109577826
F135.4253474456106
tp30
a(F-19.15674295287406
F142.08560123265644
tp31
a(F-20.92241941892337
F148.5141960294751
tp32
a(F-26.176042269590276
F152.61832704436668
tp33
a(F-32.82499551907685
F153.1039865244413
tp34
a(F-37.67219345997614
F157.68100701447474
tp35
a(F-39.75505984705693
F164.01394567342396
tp36
a(F-37.804204236733646
F170.38878738378153
tp37
a(F-38.307952068406905
F177.03639466509176
tp38
a(F-38.97718660857433
F183.66938566272557
tp39
a(F-36.91340029411212
F190.0085678254878
tp40
a(F-38.80264587717283
F196.40193904663005
tp41
a(F-37.295609525295525
F202.89603527925277
tp42
a(F-38.05784078196059
F209.51898386396994
tp43
a(F-35.973463856494945
F215.85142551605256
tp44
a(F-38.233810620910575
F222.12320970789463
tp45
a(F-39.400860162785946
F228.68693119888226
tp46
a(F-42.36531722862862
F234.65823245984873
tp47
a(F-47.91509023145012
F238.35207382915496
tp48
a(F-54.44074211298292
F239.71600636615668
tp49
a(F-60.56110234005328
F242.3590415788127
tp50
a(F-63.90540147006642
F248.1261992646609
tp51
a(F-70.13242730135462
F250.50708013965527
tp52
a(F-73.31046465790227
F256.3675001762083
tp53
a(F-72.79238506142113
F263.01400587289993
tp54
a(F-69.99205621140304
F269.0640143667949
tp55
a(F-67.05228337173251
F275.04750666607794
tp56
a(F-68.29091032105823
F281.59809806875666
tp57
a(F-71.4085312508976
F287.4908804491159
tp58
a(F-73.92237115293537
F293.6654292902351
tp59
a(F-76.16973212015671
F299.9418783761
tp60
a(F-80.30977685811027
F305.16724668964383
tp61
a(F-80.63771712909279
F311.82584260943895
tp62
a(F-76.63388710812723
F317.15630127710153
tp63
a(F-70.48081136293226
F319.72225204014
tp64
a(F-66.06437647174158
F324.7162031108172
tp65
a(F-60.15233916031627
F327.7971541446312
tp66
a(F-57.486035120894066
F333.90741332193335
tp67
a(F-57.94617883402194
F340.55818111277625
tp68
a(F-56.283596750878104
F347.0142066131328
tp69
a(F-50.62046493159069
F350.53178851577826
tp70
a(F-44.372622799428314
F352.85749553430423
tp71
a(F-37.885764447495745
F351.3196030912487
tp72
a(F-33.25206055603892
F346.5265630652587
tp73
a(F-27.464256741170793
F343.2181236378183
tp74
a(F-25.472559797353366
F336.85592372517544
tp75
a(F-22.529136728905407
F330.87422621656026
tp76
a(F-16.51217075568329
F328.0035877994949
tp77
a(F-10.106658610226837
F329.85125080958477
tp78
a(F-3.7548245909697853
F331.8757628585124
tp79
a(F0.9832306597127367
F336.5656751056578
tp80
a(F7.646388521093286
F336.78194289976284
tp81
a(F13.426431636035133
F340.10392213417384
tp82
a(F17.763308189311857
F345.16711739073696
tp83
a(F21.60631161261919
F350.614664465604
tp84
a(F22.193780120173464
F357.25539674428205
tp85
a(F21.36160592504972
F363.86992095645445
tp86
a(F20.642926754663897
F370.4977369386991
tp87
a(F23.683552554426576
F376.4306147555989
tp88
a(F27.72129793094384
F381.7354292404662
tp89
a(F31.217732797978663
F387.41164168055576
tp90
a(F36.41637631512791
F391.58519532535854
tp91
a(F38.34557899151639
F397.96662318108645
tp92
a(F38.93208459087513
F404.6074405725199
tp93
a(F43.14568981595469
F409.7736747379083
tp94
a(F49.457499008643865
F411.9197197419865
tp95
a(F53.004714670915085
F417.5643371328982
tp96
a(F55.95712737047107
F423.54160270303515
tp97
a(F61.10001907214664
F427.7836669869989
tp98
a(F62.42333584545115
F434.31767625864336
tp99
a(F63.24760653842634
F440.9331900156502
tp100
a(F59.92687692314425
F446.7139511477705
tp101
a(F59.30622555542617
F453.35166433261014
tp102
a(F61.734881683234285
F459.56021278271544
tp103
a(F67.67892690858626
F462.5789494064398
tp104
a(F70.01631657553169
F468.8224303257108
tp105
a(F67.31002433236534
F474.915083831288
tp106
a(F66.93085544278948
F481.57095908534905
tp107
a(F63.53661091192421
F487.3088636252604
tp108
a(F59.2101879212903
F492.38099419835874
tp109
a(F56.362776017601135
F498.40898639271114
tp110
a(F57.015288365114976
F505.04364328518017
tp111
a(F57.691673073217665
F511.67590897430097
tp112
a(F57.95788893512067
F505.0145597446542
tp113
a(F51.59600162990622
F507.0072549948607
tp114
a(F46.242575064989396
F510.98032288485297
tp115
a(F43.865435376547985
F504.75186791222285
tp116
a(F37.99647043077203
F501.5896384914348
tp117
a(F31.361852273185665
F500.93673241283716
tp118
a(F26.13058638719411
F496.80414222331854
tp119
a(F21.932267181163894
F491.6254782750861
tp120
a(F18.515348517966906
F485.9010471860135
tp121
a(F13.970110936477457
F481.0240337789927
tp122
a(F7.309665513874724
F480.736090699592
tp123
a(F2.1733751501015446
F476.4860359065975
tp124
a(F-3.0487952313167375
F472.34195808977483
tp125
a(F-9.708861185389829
F472.04536757772
tp126
a(F-15.973558995463272
F469.7654540282832
tp127
a(F-22.070157204184476
F467.0680599662556
tp128
a(F-28.521041138388632
F465.38563882044485
tp129
a(F-35.05794315879742
F464.0766864072457
tp130
a(F-41.68955825964039
F463.3939524922276
tp131
a(F-48.32153939001187
F462.71478334478263
tp132
a(F-54.441967951455894
F465.3576603129188
tp133
a(F-58.90789023308139
F470.3074060254707
tp134
a(F-65.07397437115006
F472.8419377073998
tp135
a(F-67.97679505819279
F478.8434438936268
tp136
a(F-69.8890131996453
F485.22998178390384
tp137
a(F-75.47564189121093
F488.8678416364848
tp138
a(F-80.78327207077629
F492.9018850573482
tp139
a(F-86.64546086040544
F496.0766585987509
tp140
a(F-91.72883083814838
F500.3898701764301
tp141
a(F-92.55002513022386
F507.0057665162398
tp142
a(F-95.05441722833923
F500.8273796180809
tp143
a(F-101.70229009763766
F500.3271489132153
tp144
a(F-108.34988429464244
F499.8232284468788
tp145
a(F-114.0122861711808
F496.3044716446801
tp146
a(F-120.50010906068302
F494.77065333767774
tp147
a(F-126.4996683252799
F491.8638108797805
tp148
a(F-133.01924961073854
F493.2564717526214
tp149
a(F-139.65799804436773
F492.646993550033
tp150
a(F-145.90937332633763
F490.33080022295076
tp151
a(F-152.44388121557964
F491.65165263328225
tp152
a(F-158.79362049276688
F489.6205801195127
tp153
a(F-162.94489228847976
F484.40412663821303
tp154
a(F-169.51058844441872
F483.2482380482819
tp155
a(F-175.96973378003642
F481.59781810844464
tp156
a(F-179.47408130263335
F475.92648732234926
tp157
a(F-177.9814769714336
F469.4290588498743
tp158
a(F-174.8269915864535
F463.5559279641889
tp159
a(F-175.4805286139718
F456.9213719279415
tp160
a(F-171.3611248986199
F451.6797159420541
tp161
a(F-166.28591006969972
F447.3569114259149
tp162
a(F-162.7552251227301
F441.7019394322012
tp163
a(F-162.9106434464775
F435.0370846258991
tp164
a(F-164.62236369222205
F428.59391318283224
tp165
a(F-166.03048116831087
F422.07765278149947
tp166
a(F-162.89414954128623
F416.1948075200831
tp167
a(F-159.96139791441107
F410.2078707123737
tp168
a(F-161.4416036123696
F403.7076064457322
tp169
a(F-159.1419032405806
F397.450145087926
tp170
a(F-154.50448005837694
F392.6607035052773
tp171
a(F-149.58989631656502
F388.1561157228978
tp172
a(F-145.38229730090615
F382.98498867283695
tp173
a(F-142.29111661103462
F377.0782936250958
tp174
a(F-141.89358520926461
F370.42348985420585
tp175
a(F-138.6436831728163
F364.6026152465602
tp176
a(F-138.963247142958
F357.9436120693999
tp177
a(F-138.47263845905704
F351.29502217651844
tp178
a(F-137.39557535507373
F344.715935650679
tp179
a(F-141.24329500714083
F339.27171872594676
tp180
a(F-141.08617750988302
F332.60690375953544
tp181
a(F-145.30958028457908
F327.4486760166829
tp182
a(F-149.72994986002652
F322.45820737527225
tp183
a(F-156.23977158552043
F321.02061718793374
tp184
a(F-162.29836178624828
F323.80233054917153
tp185
a(F-168.96180692403237
F324.00955829872777
tp186
a(F-175.1916802183138
F326.3829784430856
tp187
a(F-179.51021478087415
F331.46182709966286
tp188
a(F-178.98858319215793
F338.1080549719298
tp189
a(F-177.9961433889062
F344.70043752161286
tp190
a(F-178.41768019463186
F351.35376384502905
tp191
a(F-176.3683795802541
F357.6976436859746
tp192
a(F-174.02413280285492
F363.9385531942993
tp193
a(F-174.68625453684473
F370.57225798527566
tp194
a(F-179.4080967598819
F375.2784932604386
tp195
a(F-180.8196674788537
F381.7940064827248
tp196
a(F-184.63384652825755
F387.2617740914965
tp197
a(F-186.10017114154329
F393.7651837028401
tp198
a(F-190.33394737142513
F398.91490051832926
tp199
a(F-191.92195311951792
F405.3896732702078
tp200
a(F-196.55855155998623
F410.1799132794653
tp201
a(F-197.71045669336945
F416.74630947586786
tp202
a(F-196.34507949262226
F423.2716592399896
tp203
a(F-191.95461099960644
F428.28845411882213
tp204
a(F-185.96119747994595
F431.2079470245842
tp205
a(F-180.75890939370578
F435.37695687252267
tp206
a(F-174.15597487657482
F436.2965764715552
tp207
a(F-167.87285518168355
F434.06793308507235
tp208
a(F-161.4717858530178
F435.9309295676399
tp209
a(F-158.10152139517427
F441.6829519883752
tp210
a(F-153.08715037377792
F446.0761885747913
tp211
a(F-148.1754245461919
F450.5838924070177
tp212
a(F-141.50876156086815
F450.57688636970755
tp213
a(F-134.94398127522496
F449.4158074552168
tp214
a(F-128.42398474263948
F450.8065229759175
tp215
a(F-122.62490938615485
F454.0951654700566
tp216
a(F-120.76166883029167
F460.496163757467
tp217
a(F-114.92325489757103
F463.71445013295596
tp218
a(F-109.28022092356831
F467.2641842092912
tp219
a(F-105.72772187736908
F472.90547794133516
tp220
a(F-103.2956684334869
F479.1126963594791
tp221
a(F-103.30301910168104
F485.7793589737203
tp222
a(F-99.46671876581847
F491.23162860915704
tp223
a(F-99.62324340216671
F497.8964575253904
tp224
a(F-96.05574683819835
F503.52827896347935
tp225
a(F-89.82938908197467
F505.9109064072812
tp226
a(F-86.87917072954869
F511.8892553530565
tp227
a(F-81.27734763788125
F508.27483665925445
tp228
a(F-87.25074190228199
F511.2350740494765
tp229
a(F-91.96792253679467
F506.52416635500583
tp230
a(F-93.62998273540225
F500.0680064793019
tp231
a(F-91.48517069428298
F493.75577820770764
tp232
a(F-90.90758634073386
F487.11417894555854
tp233
a(F-94.68070103547555
F481.6179939100299
tp234
a(F-101.1565548155351
F480.03440233903285
tp235
a(F-105.63077115556943
F475.09215258947404
tp236
a(F-111.8131936641007
F472.5977395582279
tp237
a(F-118.46190940154943
F473.0866398415638
tp238
a(F-123.84558338143673
F469.1546557466406
tp239
a(F-126.91200558430977
F463.2350696700494
tp240
a(F-127.96556003496761
F456.6521776411655
tp241
a(F-129.91493352111536
F450.27688255341087
tp242
a(F-135.76172385624182
F447.07383912231035
tp243
a(F-140.1100155534778
F442.0204438517825
tp244
a(F-146.57219496520622
F440.381944021121
tp245
a(F-152.3846582725517
F437.1170221621469
tp246
a(F-158.96511850535737
F438.1856603464298
tp247
a(F-164.82066628771648
F441.372665933647
tp248
a(F-166.93854603381342
F447.6939814474872
tp249
a(F-170.04503219779147
F453.59264130863
tp250
a(F-175.13770567769828
F457.89486413776126
tp251
a(F-181.78372309637967
F458.41917026496935
tp252
a(F-187.2934427484671
F454.66584723066416
tp253
a(F-190.21808964866298
F448.6749470517579
tp254
a(F-195.02853654019097
F444.0593165262248
tp255
a(F-198.2438928306057
F438.21928841241106
tp256
a(F-201.70630077474152
F432.5222562312812
tp257
a(F-202.63495060584583
F425.9205856899989
tp258
a(F-204.3573974017977
F419.4802734708934
tp259
a(F-201.10244412406536
F413.6622219410233
tp260
a(F-198.44767002916666
F407.54694443714016
tp261
a(F-199.00447460995582
F400.9035708135016
tp262
a(F-203.38098440966468
F395.8745941365327
tp263
a(F-205.73895436643417
F389.63885663985945
tp264
a(F-205.70116832951732
F382.97229705789675
tp265
a(F-208.49898159007597
F376.9211248240658
tp266
a(F-212.42033212024944
F371.5297006649078
tp267
a(F-213.18823707262015
F364.9074075251737
tp268
a(F-212.33562440680285
F358.29548676895377
tp269
a(F-213.9101229654424
F351.81741616627534
tp270
a(F-211.91311559302235
F345.4568811259706
tp271
a(F-206.6953910713061
F341.30720701106407
tp272
a(F-205.32885804820936
F334.7820992003662
tp273
a(F-206.817970940652
F328.28386965394316
tp274
a(F-207.96824482852648
F321.71718750636524
tp275
a(F-206.8322691922263
F315.1480167978072
tp276
a(F-202.493869711852
F310.08612640062034
tp277
a(F-201.4499031878146
F303.5017070381303
tp278
a(F-203.0646689514889
F297.03355614526225
tp279
a(F-205.72792422487174
F290.92196749800837
tp280
a(F-205.7438875158567
F284.25531994336853
tp281
a(F-208.82713508358407
F278.34447999624194
tp282
a(F-215.18350895409952
F276.33426715609966
tp283
a(F-221.23936529542834
F273.5466071306245
tp284
a(F-225.32060106180623
F268.2751785705772
tp285
a(F-230.59240419359534
F264.1944266565174
tp286
a(F-233.62582127743698
F258.2578598675474
tp287
a(F-239.38925617781354
F254.90714910808663
tp288
a(F-243.92000242618192
F250.01667030971316
tp289
a(F-249.11869972438973
F245.84318365631995
tp290
a(F-255.1922149598182
F243.09420982423953
tp291
a(F-261.7975509587678
F242.19200098731474
tp292
a(F-267.70780636715784
F245.2763689050639
tp293
a(F-273.50718683248675
F248.5644733229323
tp294
a(F-280.14998689640896
F248.00086729457632
tp295
a(F-285.5894987874325
F244.14649901535623
tp296
a(F-292.1019245220784
F242.72075166916665
tp297
a(F-297.9764991296966
F239.5689557328834
tp298
a(F-302.5054903991402
F234.6768516328312
tp299
a(F-304.60059552929033
F228.34795133830426
tp300
a(F-302.9009732646352
F221.90157804769092
tp301
a(F-305.2831622830313
F215.67505253781968
tp302
a(F-308.8113174778045
F210.01850187809433
tp303
a(F-312.9378592312223
F204.78246352818286
tp304
a(F-318.3546254834197
F200.89619439011477
tp305
a(F-323.26364659611744
F196.3855451952059
tp306
a(F-328.2788454693455
F191.99325368547935
tp307
a(F-334.59832024471376
F189.86988772363273
tp308
a(F-341.22336643355925
F190.61366688447825
tp309
a(F-347.73372720585803
F189.1785198331425
tp310
a(F-354.39522294575755
F189.44104402582752
tp311
a(F-360.93239784343587
F188.13345509898213
tp312
a(F-367.2766920820816
F190.18147244703647
tp313
a(F-370.66221804274085
F195.92452550391715
tp314
a(F-373.7702821182103
F201.82235409986842
tp315
a(F-372.3841413036115
F208.34332473977685
tp316
a(F-375.9401704465435
F213.9823939164285
tp317
a(F-377.99055510485937
F220.32592347002776
tp318
a(F-379.13651159167364
F226.89336042631237
tp319
a(F-376.81853896078644
F233.14407617148126
tp320
a(F-374.8086103268541
F239.5005399156509
tp321
a(F-374.93899274948456
F246.16593149216862
tp322
a(F-379.677600526552
F250.85528547534798
tp323
a(F-386.1433980527478
F252.47944888913509
tp324
a(F-392.76865808768105
F253.22132078775417
tp325
a(F-397.133697052118
F258.260257112356
tp326
a(F-401.725121855438
F263.09381302078435
tp327
a(F-408.378003989533
F263.52230310734814
tp328
a(F-414.84701008404534
F261.91096683157997
tp329
a(F-421.30500590215007
F263.56587905214815
tp330
a(F-426.54331638242905
F267.6895361373874
tp331
a(F-433.19834254614153
F268.0833269508234
tp332
a(F-439.4015204692671
F265.6409862500832
tp333
a(F-442.8507054328139
F259.9359387014919
tp334
a(F-448.7279803849257
F256.78918107152987
tp335
a(F-452.41770456695485
F251.23666993646734
tp336
a(F-455.46536495411294
F245.307402645394
tp337
a(F-459.65013716987
F240.11778551629166
tp338
a(F-459.33208856771415
F233.45870978980295
tp339
a(F-458.8061342531091
F226.81282260272306
tp340
a(F-462.62611883388297
F221.3491093738745
tp341
a(F-462.74493544542065
F214.68350159533944
tp342
a(F-460.6089783077141
F208.36827146886543
tp343
a(F-460.7153885869479
F201.70245409236028
tp344
a(F-457.5888886682161
F195.8143777763964
tp345
a(F-454.89756836219345
F189.71509589613913
tp346
a(F-451.5072413660338
F183.97487575196737
tp347
a(F-446.49475818538593
F179.57948534744506
tp348
a(F-444.08767804699363
F173.36253998402086
tp349
a(F-439.3483373617314
F168.67392672278223
tp350
a(F-436.0590559088465
F162.87521376487925
tp351
a(F-430.6312458262449
F159.004384118453
tp352
a(F-427.3089669182536
F153.22451324602335
tp353
a(F-428.10293972337956
F146.60529489117474
tp354
a(F-427.6797630444851
F139.95207266860587
tp355
a(F-428.2380281417353
F133.3088216176793
tp356
a(F-424.79728971662684
F127.59867595102364
tp357
a(F-422.4268722022594
F121.36765956105768
tp358
a(F-416.47752427091666
F118.35938702748093
tp359
a(F-409.812302544011
F118.22059302318203
tp360
a(F-403.1660884125109
F117.69878638975128
tp361
a(F-398.1440716971938
F113.31429182874199
tp362
a(F-393.34905345606813
F108.68263505046961
tp363
a(F-391.33060585877547
F102.32887130435599
tp364
a(F-387.22828749239034
F97.07383291579367
tp365
a(F-383.6320764395336
F91.46030367762671
tp366
a(F-381.67902849089523
F85.08613328809648
tp367
a(F-383.18212576530846
F78.59112420202923
tp368
a(F-385.2214611943782
F72.24403388817791
tp369
a(F-385.4879916539579
F65.58269723863371
tp370
a(F-386.1783763979873
F58.95187426183393
tp371
a(F-386.4209096683959
F52.289620734896566
tp372
a(F-382.3259761334756
F47.02882575799151
tp373
a(F-376.7393880000904
F43.39090362133657
tp374
a(F-372.614518562685
F38.15354774562948
tp375
a(F-366.7281228829311
F35.02388476923432
tp376
a(F-360.082884861794
F35.557978475318606
tp377
a(F-353.4171853730948
F35.44442333100655
tp378
a(F-347.73553447146514
F38.93201382824888
tp379
a(F-341.06907649308874
F38.87926473360403
tp380
a(F-334.41493523519085
F39.287735741615215
tp381
a(F-328.6604509754731
F42.65379506211232
tp382
a(F-322.0130476261082
F42.14736327470554
tp383
a(F-315.3630402275281
F41.676357920941726
tp384
a(F-308.713766464898
F42.15760928358273
tp385
a(F-302.37684951992725
F40.08687799319589
tp386
a(F-297.5013977759107
F35.53996533335625
tp387
a(F-295.9792836972363
F29.04938653205156
tp388
a(F-292.02892439675736
F23.67918115035863
tp389
a(F-290.1799516045748
F17.274046955182612
tp390
a(F-289.56123504398744
F10.636153142978365
tp391
a(F-292.28073479715266
F4.54938343015214
tp392
a(F-290.4062703752533
F-1.8483370682346054
tp393
a(F-292.8322003684872
F-8.057951235988735
tp394
a(F-296.97517842234464
F-13.280994150775108
tp395
a(F-297.3324357816539
F-19.938081473596093
tp396
a(F-298.10718596017546
F-26.559577271776835
tp397
a(F-297.07128730205375
F-33.145270736746646
tp398
a(F-295.2915085210663
F-39.56997554982494
tp399
a(F-298.25405661966994
F-45.542224138748914
tp400
a(F-299.2211840992542
F-52.13836762435302
tp401
a(F-304.05880751742774
F-56.725506613786784
tp402
a(F-309.83008515109356
F-60.06269089392371
tp403
a(F-316.4929352723567
F-59.83714110778261
tp404
a(F-322.27497670764944
F-63.155640962385895
tp405
a(F-328.5135624713416
F-65.50606477810561
tp406
a(F-334.5165294933247
F-68.40586328445525
tp407
a(F-341.1553534187254
F-69.0145186318989
tp408
a(F-346.72543395770913
F-65.35137145581122
tp409
a(F-349.9844456294914
F-59.535592284656985
tp410
a(F-354.97227750059517
F-55.11224765982321
tp411
a(F-359.459469803122
F-50.18177611192958
tp412
a(F-365.48907342101893
F-47.337778106394374
tp413
a(F-371.1541506814164
F-43.8233302012218
tp414
a(F-377.66751173429213
F-45.24479854041401
tp415
a(F-384.1977765296315
F-43.90312564913392
tp416
a(F-390.40796182785914
F-46.32759322081266
tp417
a(F-397.074227401693
F-46.400721488684994
tp418
a(F-402.2718558318391
F-50.57553922681218
tp419
a(F-407.0506886069662
F-55.223893962825244
tp420
a(F-413.5968868692856
F-56.485532879017704
tp421
a(F-419.459229342359
F-59.660022629015934
tp422
a(F-425.8951533645255
F-57.92125110137236
tp423
a(F-432.5439913669391
F-57.43401639190924
tp424
a(F-439.20008232215815
F-57.058653047540766
tp425
a(F-445.84253537820337
F-57.62633415756658
tp426
a(F-451.2939437703268
F-53.78881008770969
tp427
a(F-457.790875002168
F-52.294042877348524
tp428
a(F-461.4707618821529
F-46.73500725999912
tp429
a(F-464.9263126477085
F-41.03381323145454
tp430
a(F-470.2503684371386
F-37.021472967284446
tp431
a(F-473.68558857052955
F-31.308005799304034
tp432
a(F-479.9027306424251
F-28.901433776215985
tp433
a(F-486.2502799761036
F-30.93934003042937
tp434
a(F-492.8298174495926
F-32.01364495892915
tp435
a(F-499.4748487779335
F-31.476985765574188
tp436
a(F-504.56298252454707
F-27.16939485869633
tp437
a(F-510.81782044096394
F-24.862568665894106
tp438
a(F-516.9388175221814
F-22.221008676764185
tp439
a(F-519.6576490244491
F-16.133940441010576
tp440
a(F-525.3004234167786
F-12.583793739574823
tp441
a(F-531.9341691646714
F-13.24550500346486
tp442
a(F-538.0031473441834
F-16.00448095498236
tp443
a(F-541.2511891630788
F-21.82639376669217
tp444
a(F-544.9682717920577
F-27.360627333663054
tp445
a(F-543.6941980034794
F-33.904416788230044
tp446
a(F-544.4004275841883
F-40.53357089895762
tp447
a(F-545.2810713395406
F-47.141816582995354
tp448
a(F-543.9838206128554
F-53.681050865123424
tp449
a(F-538.8971503543755
F-57.99036985145299
tp450
a(F-534.0661806045355
F-62.58451566113017
tp451
a(F-532.1790082463825
F-68.97849915618767
tp452
a(F-530.8405432457616
F-75.50942220630526
tp453
a(F-527.313456941249
F-81.16663942371562
tp454
a(F-525.5207897122701
F-87.58775993734794
tp455
a(F-527.9478152913937
F-93.7969459776212
tp456
a(F-532.3628169162579
F-98.79216420077131
tp457
a(F-538.7175148472586
F-100.80766876543487
tp458
a(F-543.989583102254
F-104.88807815165028
tp459
a(F-546.4423162667855
F-111.08715424959034
tp460
a(F-549.2000915541004
F-117.15667811140354
tp461
a(F-547.8564791968046
F-123.6865441343604
tp462
a(F-548.222388312831
F-130.34316151582775
tp463
a(F-545.6476655245265
F-136.49257181339533
tp464
a(F-541.1174132783257
F-141.38350822989446
tp465
a(F-534.4723016234917
F-141.91917187364362
tp466
a(F-529.0618757299465
F-145.81426315561632
tp467
a(F-522.9287251717841
F-148.42748122446514
tp468
a(F-516.5100187212678
F-150.22877296833798
tp469
a(F-509.9977908104498
F-148.80212231663373
tp470
a(F-503.73683833024836
F-146.5119436150684
tp471
a(F-498.43739566709604
F-142.46715043068852
tp472
a(F-493.0284321051144
F-138.57002871978452
tp473
a(F-488.88939729998856
F-133.343860398117
tp474
a(F-486.99083896249317
F-126.95324848034485
tp475
a(F-481.2548961643452
F-123.55568984791203
tp476
a(F-477.1166378204978
F-118.32890667620678
tp477
a(F-470.5284338037443
F-117.30909675368318
tp478
a(F-464.1917416282671
F-115.2376777430312
tp479
a(F-458.00602253675856
F-112.75145093008932
tp480
a(F-455.0815415099045
F-106.76046977772243
tp481
a(F-454.3446759731787
F-100.13465106414219
tp482
a(F-457.76191951321886
F-94.41041390688724
tp483
a(F-456.23941160471736
F-87.91992747573319
tp484
a(F-457.8075285268494
F-81.44030914106504
tp485
a(F-463.3775354894478
F-77.77705008920292
tp486
a(F-470.0252175376741
F-77.27428987783587
tp487
a(F-476.6816244689874
F-77.64400762045628
tp488
a(F-483.3306199617828
F-78.12908841911904
tp489
a(F-489.9481870497245
F-77.32146828499904
tp490
a(F-496.42618683031964
F-78.89625820338622
tp491
a(F-500.68112992022213
F-84.02849979416658
tp492
a(F-501.358433659712
F-90.6606716924905
tp493
a(F-497.94449359185467
F-96.38687965741134
tp494
a(F-497.54266998646347
F-103.04142564001563
tp495
a(F-495.6493347010029
F-109.43358692875627
tp496
a(F-497.7421239830913
F-115.76325338641583
tp497
a(F-503.15269974565365
F-119.6581364863326
tp498
a(F-509.7383346487215
F-118.62186559127713
tp499
a(F-515.3660851650621
F-122.19578061128976
tp500
a(F-522.0302492922979
F-122.01313086530388
tp501
a(F-526.8274061089238
F-117.38368911481776
tp502
a(F-529.4506833309155
F-111.25483432285016
tp503
a(F-532.5994857307271
F-105.37865462074907
tp504
a(F-538.902835189517
F-103.2078874649218
tp505
a(F-545.1666954800595
F-100.92567391115244
tp506
a(F-548.9065523185753
F-95.40680489007113
tp507
a(F-550.8345466357258
F-89.02501185382498
tp508
a(F-549.1414561089624
F-82.57691997229688
tp509
a(F-549.6406108770989
F-75.92896622983665
tp510
a(F-553.7625392656017
F-70.68929536188138
tp511
a(F-553.1358646972185
F-64.05214812607394
tp512
a(F-548.3932625949268
F-59.36683386299804
tp513
a(F-542.0508100464956
F-57.31312012555956
tp514
a(F-538.5914835893772
F-51.61421629170479
tp515
a(F-538.3509199795801
F-44.95189135260989
tp516
a(F-535.6619044191308
F-38.85159301891294
tp517
a(F-535.081618938906
F-32.21022921274446
tp518
a(F-536.8432291476493
F-25.78051896134931
tp519
a(F-535.9195599726972
F-19.178149712383608
tp520
a(F-531.8415791646994
F-13.904202710939078
tp521
a(F-525.2417523639198
F-12.962538947085417
tp522
a(F-519.7613190950804
F-16.758496748516176
tp523
a(F-513.4111266841018
F-18.78815208575798
tp524
a(F-506.76265118790724
F-19.280308586218037
tp525
a(F-500.4975481449322
F-21.559108337260053
tp526
a(F-493.8800590567281
F-22.367367337793954
tp527
a(F-487.25479665847536
F-23.109218130570223
tp528
a(F-482.1937214378585
F-27.448568549204623
tp529
a(F-478.2190948306245
F-32.8008379536266
tp530
a(F-479.01923346299236
F-39.419313806376756
tp531
a(F-477.955422689773
F-46.00055617261938
tp532
a(F-479.0197902572833
F-52.58170851287687
tp533
a(F-477.1495291151004
F-58.98065902874157
tp534
a(F-473.7589915790105
F-64.72075481721149
tp535
a(F-468.6840767746912
F-69.04391155428979
tp536
a(F-462.2901155333457
F-70.93115930925364
tp537
a(F-455.67723210873487
F-71.7762730631065
tp538
a(F-450.499025256842
F-75.97515603878635
tp539
a(F-444.4036610995065
F-78.67533755748363
tp540
a(F-438.2456159824935
F-81.22933927660543
tp541
a.