(lp0
(I0
I0
tp1
a(F198.0965960524256
F-27.52705273802698
tp2
a(F205.7386738897409
F-227.38099602243759
tp3
a(F98.06272738763023
F-58.84052448852202
tp4
a(F-43.77620935220624
F82.16201458263322
tp5
a(F-233.32011540325328
F18.341111432396815
tp6
a(F-65.51456629946782
F-90.47661547814403
tp7
a(F-90.02794067934208
F-288.9686668971168
tp8
a(F-152.40325144727254
F-478.9931932262307
tp9
a(F25.646094000700828
F-387.89747112278474
tp10
a(F102.2101513135257
F-203.13290436877082
tp11
a(F301.6608789293325
F-188.3205023513652
tp12
a(F494.93176487047253
F-239.7633312736441
tp13
a(F395.5523127443412
F-66.20145615381841
tp14
a(F360.8548434272526
F-263.16867581990823
tp15
a(F420.52129707053615
F-454.0610913571262
tp16
a(F532.1853338910557
F-288.13597908973725
tp17
a(F639.2399349994967
F-119.20015582684076
tp18
a(F513.3478629240491
F36.20636330459823
tp19
a(F375.7933209220426
F181.3915828505914
tp20
a(F231.23005336904225
F43.18354518852331
tp21
a(F34.922725182990234
F81.4383867181084
tp22
a(F-42.853955164106765
F265.69578275470036
tp23
a(F-207.37272030167117
F151.9699021574901
tp24
a(F-402.65991775933435
F108.80845513434616
tp25
a.