(lp0
(I0
I0
tp1
a(F-109.93463737002254
F-167.07595729584088
tp2
a(F-205.3732339161591
F-342.8356633985303
tp3
a(F-361.34553732643286
F-468.0260806392022
tp4
a(F-170.29969239077204
F-408.85273247620364
tp5
a(F-365.9602104621184
F-450.28896864760725
tp6
a(F-185.8024349085052
F-363.437509779181
tp7
a(F7.205400105627092
F-311.01637260000984
tp8
a(F50.751431820396796
F-506.2181736211487
tp9
a(F80.72263375799734
F-308.4766072917207
tp10
a(F265.41171473370184
F-385.2225737547842
tp11
a(F407.0461468067356
F-244.01461487374527
tp12
a(F381.7867100714937
F-442.41310492802546
tp13
a(F342.39784787554476
F-246.33016957946296
tp14
a(F237.54007360739163
F-76.02207471744813
tp15
a(F390.55624879183426
F-204.80891461937279
tp16
a(F578.7891249727121
F-272.3987387401257
tp17
a(F517.3724278016714
F-462.7352547022517
tp18
a(F318.15586000253313
F-480.42025157336644
tp19
a(F452.30278080918345
F-332.080763782373
tp20
a(F277.78898259547
F-234.38258451058056
tp21
a(F96.88520928583605
F-319.66930564779267
tp22
a(F-83.29494136986602
F-232.8642752077974
tp23
a(F-49.75773232370901
F-35.696185473696744
tp24
a(F127.60379279953594
F56.7315668843291
tp25
a.