(lp0
(I0
I0
tp1
a(F153.93358319046317
F127.68888740272095
tp2
a(F-4.730289292656124
F5.927745946752069
tp3
a(F193.9246765058262
F29.083837231850655
tp4
a(F181.79091572900566
F228.71542754112733
tp5
a(F372.1719540462433
F289.9939739440122
tp6
a(F570.7819734018292
F313.5324575734605
tp7
a(F421.34711293791923
F180.60682995360773
tp8
a(F289.1032725228615
F30.568279333186382
tp9
a(F483.1230844758778
F79.11014342714324
tp10
a(F412.15140674331553
F-107.87386915100558
tp11
a(F594.9556500479708
F-26.740592193813796
tp12
a(F638.1481255810716
F-222.02092929236167
tp13
a(F599.6213430817133
F-25.76679040543999
tp14
a(F403.2363676395592
F12.087422313681706
tp15
a(F204.59985869824408
F35.401309068292846
tp16
a(F303.17601167144767
F209.42068173985365
tp17
a(F110.8013469516147
F264.1197527916719
tp18
a(F27.573598798781617
F445.9799791673382
tp19
a(F-162.4139002302146
F383.49197861757534
tp20
a(F-60.80966890115741
F211.22306042270355
tp21
a(F41.23621680447732
F39.215394283799924
tp22
a(F59.69830929787976
F-159.93066051208362
tp23
a(F80.87255126955392
F38.945309572099745
tp24
a(F126.54650693181881
F-155.76958398810396
tp25
a.