(lp0
(I0
I0
tp1
a(F176.96216435202447
F-93.19008739048955
tp2
a(F83.13392129910434
F83.43454510906342
tp3
a(F100.28687218779018
F-115.82853796406964
tp4
a(F298.02608302655574
F-85.84179928074121
tp5
a(F430.044480378334
F-236.0787546568003
tp6
a(F453.87285640292157
F-434.65420252493647
tp7
a(F258.0987989558827
F-393.75776709685135
tp8
a(F443.38990780563296
F-318.47692636542746
tp9
a(F253.54847553703024
F-255.5465633106545
tp10
a(F427.0956241445393
F-354.95173022969936
tp11
a(F338.9918985719029
F-175.40303616532702
tp12
a(F243.32706723519152
F0.23363439443554057
tp13
a(F80.45909988709201
F-115.84403448247801
tp14
a(F-119.5392253209161
F-115.0255517448314
tp15
a(F-62.35399206628795
F-306.6758820279117
tp16
a(F44.46723478774849
F-137.59239527240834
tp17
a(F-142.83305396468958
F-67.45965089965958
tp18
a(F56.99214249365059
F-59.09957551807613
tp19
a(F-22.70731499491474
F124.33432668113122
tp20
a(F87.72273022430566
F291.0832550521434
tp21
a(F273.8402936992192
F217.8695093061325
tp22
a(F311.8731363163682
F21.5190499675835
tp23
a(F509.8848397531141
F-6.6121658269425545
tp24
a(F459.1108759155229
F-200.05984504853203
tp25
a.