(lp0
(I0
I0
tp1
a(F173.57151803908766
F-99.36260929346946
tp2
a(F-3.6052751682746305
F-6.581232127814147
tp3
a(F-200.5713407262052
F28.122788080642927
tp4
a(F-31.10028573429355
F-78.08249201375003
tp5
a(F-112.36473200598509
F-260.8284626181805
tp6
a(F-213.07774375547493
F-88.03700083737627
tp7
a(F-113.99677734956828
F85.69544315646041
tp8
a(F-244.8678503326125
F236.93287984548496
tp9
a(F-296.9766944580634
F43.84049686803692
tp10
a(F-170.2903938386561
F-110.91925641223025
tp11
a(F12.225455610374325
F-192.6992337899409
tp12
a(F44.48290845034584
F4.682266701561645
tp13
a(F198.27009868107555
F132.54743053025015
tp14
a(F363.50999597765525
F19.871894847406395
tp15
a(F396.8405196626497
F217.07502918072277
tp16
a(F474.92083002847744
F401.20396534550923
tp17
a(F362.55060788219464
F235.75629030957816
tp18
a(F551.4205676043366
F169.96770228280522
tp19
a(F583.517701435585
F367.3753363799164
tp20
a(F460.150498355976
F209.95699817145186
tp21
a(F555.9847313132533
F34.41270235558002
tp22
a(F613.1508907094286
F-157.2433182122359
tp23
a(F417.06657922856346
F-196.62532922075405
tp24
a(F609.1060101286207
F-252.48996006695359
tp25
a.