(lp0
(I0
I0
tp1
a(F-54.104671066072726
F-192.54268245984335
tp2
a(F-209.6824653350219
F-318.2230306866386
tp3
a(F-371.58348083743874
F-200.8004554326178
tp4
a(F-327.8983733420198
F-5.629731749188039
tp5
a(F-527.8157976989648
F0.11687059351312534
tp6
a(F-350.939325073985
F93.46950007841168
tp7
a(F-293.9448604742319
F285.17664914956003
tp8
a(F-386.1088058823283
F462.67540172774983
tp9
a(F-582.493971671212
F500.5286269281558
tp10
a(F-620.4688811520095
F304.16695487903814
tp11
a(F-570.8795999922543
F110.41220475905078
tp12
a(F-500.04571929036524
F297.4484615241779
tp13
a(F-434.02832811062
F108.65835568750938
tp14
a(F-589.9239425486046
F233.9442583222561
tp15
a(F-533.7390927343653
F41.99826943123665
tp16
a(F-346.44853724293176
F112.15700248500741
tp17
a(F-388.0174186693522
F-83.475377495803
tp18
a(F-226.49085052293395
F34.46175738053907
tp19
a(F-162.4910276683164
F223.94532573035028
tp20
a(F-111.74728942066145
F417.4009356998042
tp21
a(F88.12163524388404
F424.6406147975434
tp22
a(F-58.26251939657436
F288.36266621378184
tp23
a(F-62.79029438258304
F88.41392464815937
tp24
a(F134.17920449422252
F53.72939622091839
tp25
a.