(lp0
(I0
I0
tp1
a(F-182.23658880781258
F82.4003986622167
tp2
a(F14.709497131717455
F117.21762475935506
tp3
a(F197.67353707791207
F36.44535175328383
tp4
a(F-0.2271060304445598
F65.34752221328326
tp5
a(F-55.469713410679944
F-126.87176487787512
tp6
a(F-253.01235350846065
F-95.61627986806153
tp7
a(F-452.52940985999544
F-81.72584341636993
tp8
a(F-291.86677778118445
F-200.8372142149155
tp9
a(F-201.84792803840406
F-379.4334255156783
tp10
a(F-378.5857574976913
F-285.81857819956133
tp11
a(F-395.52616906471826
F-86.53731351083115
tp12
a(F-593.1734277999853
F-117.12425703963764
tp13
a(F-452.754645115932
F-259.5411291774873
tp14
a(F-361.6618960138161
F-81.49026267855962
tp15
a(F-264.02865968065055
F93.05987671729491
tp16
a(F-71.31027815310193
F39.58441111481316
tp17
a(F-265.51453022332896
F87.38303534024168
tp18
a(F-465.488367547228
F90.61790565522857
tp19
a(F-274.2270033099063
F32.14491573613372
tp20
a(F-405.3445527729012
F-118.87888445052258
tp21
a(F-209.47596654022914
F-159.32016196761293
tp22
a(F-91.74692198636066
F-320.99846004262747
tp23
a(F-218.97807214851252
F-166.6863269214242
tp24
a(F-205.2557061895017
F-366.2150132612259
tp25
a.