(lp0
(I0
I0
tp1
a(F-6.250175977240285
F-2.319427666035934
tp2
a(F-9.534565401005409
F-8.120912868766716
tp3
a(F-12.570011279656974
F-14.056442563934763
tp4
a(F-17.534251448459294
F-18.50624750245667
tp5
a(F-22.009652296737137
F-23.447424658932484
tp6
a(F-23.8417019050777
F-29.857419875547208
tp7
a(F-24.843938653561597
F-36.448320113332095
tp8
a(F-26.54036328792867
F-42.89553562891376
tp9
a(F-28.691602953171554
F-49.20557622681249
tp10
a(F-30.870182082001524
F-55.506229956694085
tp11
a(F-34.2910608310822
F-61.22829540795665
tp12
a(F-35.4169495574816
F-67.7992024245116
tp13
a(F-38.5409266955701
F-73.68861761493118
tp14
a(F-37.20279232560377
F-80.2196084166671
tp15
a(F-37.08722665877455
F-86.88527335132251
tp16
a(F-39.48942165121073
F-93.10410794172279
tp17
a(F-38.48643316286565
F-99.69489382329198
tp18
a(F-40.02215943573024
F-106.18226534489284
tp19
a(F-43.90679503948305
F-111.6002032063398
tp20
a(F-48.29288611951974
F-116.62082562612672
tp21
a(F-54.54798491794732
F-118.92694432783188
tp22
a(F-58.63532331237009
F-124.19364246745616
tp23
a(F-64.98558006007032
F-126.22309650308547
tp24
a(F-68.6696682746194
F-131.77934869965333
tp25
a(F-69.99525720964648
F-138.31289738469258
tp26
a(F-69.74483018883001
F-144.97485886399352
tp27
a(F-71.15510722498541
F-151.49065222518425
tp28
a(F-70.9143505742742
F-158.15297019114647
tp29
a(F-72.74877572186332
F-164.56228597540434
tp30
a(F-76.46720742385914
F-170.09561319526372
tp31
a(F-80.81373721570806
F-175.15052399695094
tp32
a(F-84.11808738590116
F-180.94066340781052
tp33
a(F-86.25312075714052
F-187.2562058982177
tp34
a(F-83.4463422940556
F-193.3032249244493
tp35
a(F-84.855104221419
F-199.81934603109363
tp36
a(F-85.43690955687397
F-206.46057686551586
tp37
a(F-82.05137231209117
F-212.20362327039828
tp38
a(F-76.84754332987148
F-216.3707095867895
tp39
a(F-70.96335513203789
F-219.50452095586078
tp40
a(F-66.02802171237404
F-223.98636527279032
tp41
a(F-63.916193880148604
F-230.3097051854854
tp42
a(F-58.77118889885196
F-234.54920612154817
tp43
a(F-52.10563169774312
F-234.4275852220671
tp44
a(F-45.72863534953952
F-232.4837843013341
tp45
a(F-39.73416794381435
F-229.56645590601366
tp46
a(F-33.06764766276611
F-229.5222768745957
tp47
a(F-27.183131055320025
F-226.3890822203912
tp48
a(F-20.630294033070605
F-225.16239097795005
tp49
a(F-14.489068866314737
F-227.75657637912107
tp50
a(F-10.982044073707499
F-233.42625199140107
tp51
a(F-6.685428743439197
F-238.5236573262894
tp52
a(F-0.19431177398212895
F-240.04347472758172
tp53
a(F5.86703891028759
F-237.26778160211785
tp54
a(F10.025255932894115
F-232.05686271603358
tp55
a(F9.789005222479073
F-225.3943834443005
tp56
a(F5.797458772944626
F-220.0547204038406
tp57
a(F4.463681300144672
F-213.52283843173672
tp58
a(F3.2826268068210096
F-206.9616224828257
tp59
a(F1.5203350967919862
F-200.53209898779068
tp60
a(F-0.30285043826304014
F-194.11957694500512
tp61
a(F-0.8086263925585548
F-187.47212366359722
tp62
a(F-5.638614577163068
F-182.87694591066696
tp63
a(F-11.969235327877527
F-180.78704511037333
tp64
a(F-17.119444279279264
F-176.55386755665015
tp65
a(F-22.66468008055549
F-172.85321837675093
tp66
a(F-25.442050600210404
F-166.7926361076124
tp67
a(F-24.034169291787066
F-160.27632467660814
tp68
a(F-25.79726964005683
F-153.84702287887183
tp69
a(F-25.325903019836897
F-147.19704107786012
tp70
a(F-20.6572220840535
F-142.43806400665068
tp71
a(F-19.014404758338475
F-135.97698084058828
tp72
a(F-17.252170857166757
F-129.54744150079063
tp73
a(F-13.763661012905743
F-123.866355028034
tp74
a(F-8.695420645062406
F-119.53537546006007
tp75
a(F-5.770912748108412
F-113.54440742433344
tp76
a(F-7.479065900202622
F-107.10028938899028
tp77
a(F-7.684815432332992
F-100.43679844396209
tp78
a(F-9.695226555590201
F-94.08048728418332
tp79
a(F-11.110250665065129
F-87.56572318914127
tp80
a(F-9.988905074741556
F-80.99403934772693
tp81
a(F-12.80341305606666
F-74.95061405510505
tp82
a(F-16.6183264516719
F-69.48335878134326
tp83
a(F-16.48255856505322
F-62.81807472697562
tp84
a(F-16.75173724240003
F-56.15684456400224
tp85
a(F-21.208788829699177
F-51.199109638393715
tp86
a(F-27.731128041791457
F-49.819422845368614
tp87
a(F-32.85481659606225
F-45.55418427721338
tp88
a(F-36.461941544268306
F-39.94766182095996
tp89
a(F-40.761177086629154
F-34.85246622159916
tp90
a(F-46.45690262346139
F-31.387909243640564
tp91
a(F-49.749805648756315
F-25.591252094002684
tp92
a(F-51.897958731566106
F-19.28016005084096
tp93
a(F-55.941419936914436
F-13.97970102116367
tp94
a(F-56.1206769801274
F-7.315444771820989
tp95
a(F-52.348486289445205
F-1.8186255245130472
tp96
a(F-45.81334639616032
F-0.5009036192383305
tp97
a(F-39.66322946692715
F2.0721308152774607
tp98
a(F-32.9970431760762
F2.152160685421655
tp99
a(F-27.143166969210707
F-1.0379142038463955
tp100
a(F-20.79102813328025
F-3.061469652433979
tp101
a(F-14.211469537031387
F-1.987294097428125
tp102
a(F-8.153999632200195
F-4.771446175980738
tp103
a(F-1.5238287573200981
F-4.074826757405473
tp104
a(F5.0641518885690076
F-3.053574852224874
tp105
a(F11.699681657378775
F-2.409999579483735
tp106
a(F17.170548289572512
F-6.219732212778832
tp107
a(F23.78344099405506
F-5.374691075646487
tp108
a(F29.854628667064528
F-2.6205805688689705
tp109
a(F36.227684367215865
F-4.577262834136635
tp110
a(F40.390124166603165
F-9.784809220000234
tp111
a(F42.8357137944027
F-15.986706979302928
tp112
a(F47.60858377075343
F-20.64118403191521
tp113
a(F51.98376600571639
F-25.671315725549974
tp114
a(F56.50094900191977
F-30.574325232297387
tp115
a(F56.33853119303784
F-37.239013139454215
tp116
a(F55.36457883263297
F-43.83415235285269
tp117
a(F54.42703525761683
F-50.43456571031678
tp118
a(F49.218445854475576
F-54.59570027602469
tp119
a(F44.46455915532533
F-59.269564383600645
tp120
a(F43.62020370185681
F-65.88254467335219
tp121
a(F38.72486914702307
F-70.40804398731692
tp122
a(F35.985671813895394
F-76.48597475482576
tp123
a(F34.3090793754399
F-82.9383760318511
tp124
a(F34.49520637687899
F-89.60244394745489
tp125
a(F35.10540234708631
F-96.24112644644421
tp126
a(F37.30171597311222
F-102.53562014336515
tp127
a(F36.71238576492571
F-109.17618746477402
tp128
a(F39.734170730390346
F-115.11868357894492
tp129
a(F44.9308225339912
F-119.29471692131379
tp130
a(F48.995691774742184
F-124.57877620372547
tp131
a(F53.565689013179764
F-129.43259631628808
tp132
a(F58.42635095330495
F-133.99531589437558
tp133
a(F65.03317510448268
F-134.88656169653063
tp134
a(F71.63103721864822
F-133.93122931096866
tp135
a(F77.97915110794506
F-131.89508233863071
tp136
a(F84.61941322424865
F-132.48784154035422
tp137
a(F90.99568184757321
F-134.43402829594862
tp138
a(F97.50980188237449
F-133.0160421829542
tp139
a(F103.56534515757117
F-135.80438220645647
tp140
a(F109.2336141193503
F-139.31368005949997
tp141
a(F115.85267930953037
F-138.51843138607066
tp142
a(F122.51866417123539
F-138.61377428283836
tp143
a(F129.16371549071454
F-139.150185884067
tp144
a(F135.7734496928303
F-138.2807848133145
tp145
a(F141.35639685866113
F-141.92429210546942
tp146
a(F147.01744740562734
F-145.44522254345566
tp147
a(F152.78596851460998
F-148.78716938020608
tp148
a(F157.27329535488684
F-153.71751848275198
tp149
a(F157.67769704242974
F-160.37190829095806
tp150
a(F155.15039171500075
F-166.540957830911
tp151
a(F154.53673455818023
F-173.17932128422743
tp152
a(F154.36308048829693
F-179.84372588692506
tp153
a(F152.92476145454657
F-186.3533866155342
tp154
a(F153.73409624048819
F-192.97074421874026
tp155
a(F152.93550592375442
F-199.58940707089278
tp156
a(F153.48937769286408
F-206.23302585193582
tp157
a(F150.60836051596155
F-212.24502921777295
tp158
a(F151.80743446170132
F-218.8029760090402
tp159
a(F154.29273695412357
F-224.98906653259417
tp160
a(F154.6655494130965
F-231.64530085200323
tp161
a(F159.0268082572202
F-236.68750927084088
tp162
a(F160.68016002735
F-243.14590476574926
tp163
a(F160.96222047186464
F-249.80660190269256
tp164
a(F165.77629333956955
F-254.41845043325728
tp165
a(F170.11645777664518
F-259.47882760334926
tp166
a(F175.71416144682976
F-263.0996228288828
tp167
a(F182.2662401851574
F-261.86888782442423
tp168
a(F188.21128102459167
F-258.8521124164923
tp169
a(F192.51210527121918
F-253.7582577617082
tp170
a(F192.4310343750091
F-247.0920840500328
tp171
a(F196.24705368712958
F-241.625600623371
tp172
a(F201.03695959515233
F-236.98865703553935
tp173
a(F205.27049120859348
F-231.83873912139364
tp174
a(F210.21049394634403
F-227.36204196886462
tp175
a(F214.64243729241565
F-222.38184893830285
tp176
a(F220.81363348258907
F-219.85978985357994
tp177
a(F227.24011716741188
F-218.0864450215886
tp178
a(F233.6280516681718
F-216.17889757566604
tp179
a(F239.83013540623935
F-218.6240155176971
tp180
a(F246.4496872325356
F-219.4152032725457
tp181
a(F252.36942032465606
F-222.4813416520874
tp182
a(F256.1956505270835
F-227.9406829019523
tp183
a(F256.52145209194794
F-234.59938381014575
tp184
a(F253.68585008460394
F-240.6329404478505
tp185
a(F249.7119912538028
F-245.98577992212097
tp186
a(F244.73124015003484
F-250.41709607951245
tp187
a(F244.25363672719013
F-257.06663286149444
tp188
a(F246.82089993035555
F-263.2191611296227
tp189
a(F251.1229927505239
F-268.3119444365287
tp190
a(F254.65397552125938
F-273.96673047290653
tp191
a(F256.76537940842223
F-280.2902119562129
tp192
a(F260.3927311611867
F-285.88366917926925
tp193
a(F260.13977137744814
F-292.54553496838986
tp194
a(F263.7409365199236
F-298.15588736918113
tp195
a(F268.62493948859327
F-302.6936136110858
tp196
a(F271.25058945075284
F-308.8214522774229
tp197
a(F271.25281185176306
F-315.4881185736596
tp198
a(F269.77536289146883
F-321.98900997516523
tp199
a(F267.7938619684076
F-328.354392802329
tp200
a(F269.9065365956783
F-334.67744984490986
tp201
a(F268.84262299144854
F-341.25867558843055
tp202
a(F265.7453365961733
F-347.16217128421005
tp203
a(F259.81411305914435
F-350.2060227586152
tp204
a(F253.25996209853892
F-348.98637132068734
tp205
a(F248.7160040979901
F-344.1081656942615
tp206
a(F248.41432962659735
F-337.4483280868003
tp207
a(F245.13539804445432
F-331.64375642955724
tp208
a(F240.60860443028798
F-326.74961870987795
tp209
a(F238.36074509935153
F-320.47334809168706
tp210
a(F239.63557368986386
F-313.92970564200687
tp211
a(F239.91379967678287
F-307.26884723301424
tp212
a(F244.45852612391155
F-302.3913575133722
tp213
a(F245.21006348998804
F-295.7671869213784
tp214
a(F245.5049664439257
F-289.10704603006064
tp215
a(F244.68729656796663
F-282.49071317730954
tp216
a(F247.87656242172747
F-276.63639615835
tp217
a(F253.23697463305948
F-272.6727582625468
tp218
a(F257.14805121559243
F-267.2738764885118
tp219
a(F256.3097045293968
F-260.6601317642131
tp220
a(F257.23554501541025
F-254.05806664495663
tp221
a(F258.2773566532668
F-247.47330598448679
tp222
a(F258.90743228640474
F-240.83648075392887
tp223
a(F260.24306817644066
F-234.30497853669794
tp224
a(F260.60221298968895
F-227.64799277378984
tp225
a(F261.8482649724811
F-221.09880970254926
tp226
a(F265.92252753648324
F-215.82198973176997
tp227
a(F271.27859311704555
F-211.85248019768892
tp228
a(F276.9151120705235
F-208.29241017990438
tp229
a(F283.55149247172733
F-207.65766644030387
tp230
a(F289.15629765251975
F-204.04787374129654
tp231
a(F295.50849294006065
F-202.02449550839304
tp232
a(F298.6280336936289
F-196.1327292255818
tp233
a(F303.0191955262609
F-191.11654121035744
tp234
a(F308.56325683862144
F-187.4141327227333
tp235
a(F315.21115485702273
F-186.9142363520915
tp236
a(F321.3342469998242
F-184.2775363207631
tp237
a(F324.37751706443527
F-178.34601444536833
tp238
a(F329.16249280139704
F-173.70398346301462
tp239
a(F334.90067803497493
F-170.3102134841279
tp240
a(F341.4305020784915
F-168.96639712570766
tp241
a(F347.99484122570084
F-167.80282675617298
tp242
a(F354.66132076476293
F-167.7528767840955
tp243
a(F360.80937317943693
F-165.17491325625699
tp244
a(F367.3655067525601
F-166.3838619796575
tp245
a(F373.89360715377506
F-165.0316971982414
tp246
a(F378.0849420725501
F-159.84737891681795
tp247
a(F377.5017842194991
F-153.2062667085452
tp248
a(F373.6767589161228
F-147.7460811921936
tp249
a(F369.6882057762628
F-142.40418187687914
tp250
a(F364.6869256153251
F-137.99604834938074
tp251
a(F363.7756730214264
F-131.3919539258767
tp252
a(F364.24233951690945
F-124.74164063803543
tp253
a(F368.77610120009723
F-119.85395719447007
tp254
a(F375.1366970254101
F-117.85714343463754
tp255
a(F380.7403294220532
F-114.24553044211791
tp256
a(F386.63382777315445
F-111.12926318303832
tp257
a(F393.2704655913209
F-110.49721657484601
tp258
a(F399.6483899299875
F-112.43797044246773
tp259
a(F406.20244724950464
F-111.21781590433405
tp260
a(F411.71557174458076
F-107.46949591449378
tp261
a(F414.9212559793818
F-101.62415306473785
tp262
a(F418.537288811273
F-96.02337177967331
tp263
a(F419.0766221828271
F-89.37855696218047
tp264
a(F419.4777848560199
F-82.72397110323467
tp265
a(F420.9919795155043
F-76.23154020428522
tp266
a(F422.82873678286006
F-69.82289236053064
tp267
a(F426.7834109222798
F-64.45586367647749
tp268
a(F427.5501737971469
F-57.83343820402633
tp269
a(F428.10782230139336
F-51.19013536656994
tp270
a(F426.2201970021941
F-44.796285573662125
tp271
a(F428.02788226159475
F-38.37937678146396
tp272
a(F431.17765622813
F-32.503717805299544
tp273
a(F435.34694193814966
F-27.301650801437486
tp274
a(F436.91403741801685
F-20.821785355193697
tp275
a(F441.1122741077514
F-15.643054512466744
tp276
a(F445.54086488180207
F-10.659880002133239
tp277
a(F448.15166212639974
F-4.525698541494374
tp278
a(F450.9955413289343
F1.503961111076073
tp279
a(F451.93269605267784
F8.104429690518714
tp280
a(F456.71138020330943
F12.752937217988901
tp281
a(F462.3634089727175
F16.288331854267586
tp282
a(F468.33918817513535
F19.243751852913213
tp283
a(F475.005661713399
F19.193007315517523
tp284
a(F480.092532809064
F14.883925406278358
tp285
a(F486.7517242543977
F14.568308963679529
tp286
a(F492.29217195839163
F18.276122832221564
tp287
a(F497.81955996538915
F22.003377353252375
tp288
a(F501.2601706883011
F27.71359996693633
tp289
a(F499.85987307107956
F34.231545274136145
tp290
a(F495.00981474900163
F38.805534639765106
tp291
a(F492.54687131544046
F45.00056120044442
tp292
a(F487.98537808179543
F49.862374023235425
tp293
a(F485.0233328246685
F55.8348720214918
tp294
a(F483.10436147715575
F62.21938401630155
tp295
a(F482.4653636020793
F68.85535615006555
tp296
a(F483.1235141934905
F75.48945610736718
tp297
a(F487.08436602968317
F80.85192728921734
tp298
a(F486.8175164942459
F87.51325116438521
tp299
a(F485.95547527765314
F94.12394926559507
tp300
a(F488.0118365469421
F100.46554392109086
tp301
a(F493.7081998265952
F103.92905223357751
tp302
a(F499.6860686440971
F106.88024332281299
tp303
a(F506.2461833800279
F105.69308743756979
tp304
a(F511.59343826248255
F101.71171711235392
tp305
a(F515.9644947328865
F96.67799982023423
tp306
a(F521.6646761955049
F93.22077900899488
tp307
a(F528.2629604984752
F94.17319105302838
tp308
a(F532.9471544643965
F98.91689965854692
tp309
a(F535.6025077767757
F105.03192567900511
tp310
a(F539.353943201192
F110.54293073261185
tp311
a(F543.7473369835423
F115.55716402571365
tp312
a(F550.3051717462538
F116.75685051368328
tp313
a(F556.4540478662321
F114.18085227890043
tp314
a(F561.6960272898559
F110.06186014893112
tp315
a(F566.306960087529
F105.24691018244259
tp316
a(F572.7491194345278
F103.53138478411111
tp317
a(F578.6761238810274
F106.58344355412495
tp318
a(F581.3413008828517
F112.69419440761189
tp319
a(F579.551395367413
F119.11608530439973
tp320
a(F574.3231705046832
F123.25252208370368
tp321
a(F571.7683479411933
F129.41022669772406
tp322
a(F569.7630185232268
F135.76814289486623
tp323
a(F569.7640279160672
F142.43480948511734
tp324
a(F567.8652280483152
F148.8253496427777
tp325
a(F568.5528831870039
F155.4564562513823
tp326
a(F567.9645718450267
F162.09711391529973
tp327
a(F565.379894033593
F168.24234662493137
tp328
a(F566.2911793490234
F174.84643653333853
tp329
a(F564.7569592653037
F181.33416442368318
tp330
a(F562.5605676755725
F187.6286309164848
tp331
a(F560.9398643464228
F194.0952966078073
tp332
a(F557.2149043382083
F199.62423116897247
tp333
a(F551.104996246552
F202.29133963245064
tp334
a(F544.5679075564485
F203.59935947257782
tp335
a(F537.9217494586063
F203.0768396328292
tp336
a(F532.526311531084
F199.16101353675455
tp337
a(F528.3402045624706
F193.97247300094193
tp338
a(F525.7749544823604
F187.8191051043394
tp339
a(F523.0601583911936
F181.73023602807984
tp340
a(F524.5418861675689
F175.23031854851425
tp341
a(F524.2418182599545
F168.57040836178768
tp342
a(F520.3381197019041
F163.16618945316452
tp343
a(F513.8036994573613
F161.84490352190176
tp344
a(F507.68134378868615
F164.4833131774871
tp345
a(F504.62759830701214
F170.40944876297618
tp346
a(F502.85107842418637
F176.8350554697681
tp347
a(F501.2319471680782
F183.3021149576604
tp348
a(F500.457065884233
F189.9235954145062
tp349
a(F500.36072453968285
F196.58956592072468
tp350
a(F504.4268925618303
F201.87262583521647
tp351
a(F505.2384071804322
F208.4897164699471
tp352
a(F503.54756515583796
F214.93839832690907
tp353
a(F501.41309094240233
F221.25412981871767
tp354
a(F504.27493620892744
F227.2752830400626
tp355
a(F507.68405584793794
F233.00436217473663
tp356
a(F511.39130623668285
F238.54518693280244
tp357
a(F512.2609284825558
F245.15489203922945
tp358
a(F516.9880697078113
F249.8558047464528
tp359
a(F522.095713671128
F254.14024375155478
tp360
a(F527.9335525590217
F257.3595731170346
tp361
a(F532.2685474892158
F262.42437947065116
tp362
a(F538.5370619867555
F264.6937781660285
tp363
a(F545.0717757129348
F266.01361185302386
tp364
a(F549.5027357439575
F270.9946797754602
tp365
a(F555.668247344732
F273.5306038960048
tp366
a(F561.5126687909232
F276.7379676738986
tp367
a(F567.4920087676466
F279.68617694177664
tp368
a(F569.9921215244775
F285.86629673410874
tp369
a(F572.5380293610907
F292.027692495778
tp370
a(F571.9246142542898
F298.6660783199971
tp371
a(F567.5601871404107
F303.70554460246
tp372
a(F563.2624806205632
F308.8020299711926
tp373
a(F560.8807183670244
F315.0287187390742
tp374
a(F561.3102311893883
F321.6815349232077
tp375
a(F557.7439333146956
F327.3141154963914
tp376
a(F552.8618071138094
F331.8538608860653
tp377
a(F547.1362370116958
F335.2688706152209
tp378
a(F540.5773460154305
F336.46276899596944
tp379
a(F534.5922158976521
F339.399205938542
tp380
a(F531.4567147238367
F345.28249386566637
tp381
a(F527.6872141525711
F350.7811582387367
tp382
a(F526.6848428229275
F357.3720380102052
tp383
a(F522.0795669563505
F362.1923988511763
tp384
a(F521.8394992883232
F368.85474167928203
tp385
a(F525.3818350516719
F374.50242277723225
tp386
a(F528.9717722601556
F380.11996630475295
tp387
a(F529.8223094356837
F386.73215436601447
tp388
a(F530.1317605877148
F393.3916351587603
tp389
a(F534.4917840409042
F398.4349118646414
tp390
a(F540.8440679549276
F400.45801184241924
tp391
a(F544.9938983504642
F405.67561206979633
tp392
a(F550.7705810975615
F409.00343130825155
tp393
a(F557.4184268970909
F408.5028409866066
tp394
a(F563.6125804884861
F410.96797906197895
tp395
a(F569.7814067936838
F413.4958292277808
tp396
a(F576.4279030506469
F412.9776285421199
tp397
a(F583.0683975101311
F413.5677791822139
tp398
a(F589.0117131515595
F410.5476064006006
tp399
a(F594.6269073753525
F406.9539956435031
tp400
a(F600.0541175753845
F403.0823249590164
tp401
a(F601.5349802389543
F396.5822103280203
tp402
a(F603.3615682426995
F390.1706566388574
tp403
a(F605.7478979462845
F383.9457168808973
tp404
a(F604.4932580838497
F377.3981735813052
tp405
a(F605.078743536545
F370.75726617123485
tp406
a(F609.880993298216
F366.13310768876755
tp407
a(F613.8367829728924
F360.76690116141805
tp408
a(F619.1714292009644
F356.76865228650286
tp409
a(F621.4019955740879
F350.48621501267866
tp410
a(F624.098873137585
F344.38938830922456
tp411
a(F628.6289655347956
F339.49830383671963
tp412
a(F630.2589584311618
F333.0339734303867
tp413
a(F633.3187522906604
F327.11095849018784
tp414
a(F632.3782870661231
F320.51096079277306
tp415
a(F633.5456938484425
F313.94730283024643
tp416
a(F634.6461876596411
F307.3720950148266
tp417
a(F635.5774554870422
F300.77079327364766
tp418
a(F636.8054286189632
F294.2181963509212
tp419
a(F635.8544513296529
F287.619705111277
tp420
a(F637.6251505991958
F281.1924919872796
tp421
a(F639.4921648292211
F274.7925933701664
tp422
a(F639.3235480345854
F268.12805941639203
tp423
a(F638.0387968367418
F261.5863578943044
tp424
a(F639.6386474917842
F255.11450172114937
tp425
a(F636.1291509256628
F249.44635578999814
tp426
a(F631.8335938760872
F254.5446529643776
tp427
a(F626.8594396248624
F258.9833728169326
tp428
a(F626.0582123083035
F265.6017169626872
tp429
a(F625.6714738012145
F272.2571566755521
tp430
a(F623.2921833273437
F278.48479035821134
tp431
a(F624.6052109796241
F285.02087502938804
tp432
a(F624.6442807057616
F291.68742721180917
tp433
a(F621.1345841254313
F297.3554492970221
tp434
a(F619.7372745513383
F303.87403583081857
tp435
a(F620.81202139961
F310.45350113254136
tp436
a(F625.4549800575124
F315.23757673243034
tp437
a(F627.4214707977058
F321.6076127302233
tp438
a(F630.4640364548799
F327.5394959612242
tp439
a(F636.1451217208215
F331.0280077707994
tp440
a(F630.1315905128623
F333.9058345298913
tp441
a(F627.325713442857
F339.953271864206
tp442
a(F626.5841644921866
F346.57856805367584
tp443
a(F624.2255272283738
F352.8140531753162
tp444
a(F625.9440721448531
F359.25540767685453
tp445
a(F628.909978527527
F365.22598920411457
tp446
a(F628.9384145301317
F371.8925952250371
tp447
a(F627.1342638001739
F378.3104986668191
tp448
a(F622.9563645233169
F383.5056504525595
tp449
a(F617.5632530485434
F387.4246800601424
tp450
a(F613.6286757370258
F392.8064591176786
tp451
a(F614.1756892603224
F399.4506460995279
tp452
a(F610.8944410311609
F405.2539085012351
tp453
a(F606.2465485101771
F410.033190827885
tp454
a(F599.7865272752522
F411.680179015081
tp455
a(F593.2151373973096
F412.8032460284502
tp456
a(F589.0172874735525
F417.98229038644297
tp457
a(F586.143153446031
F423.99758738960804
tp458
a(F583.8905678720986
F430.2721632857588
tp459
a(F585.3778105980882
F436.7708211101434
tp460
a(F587.0402348808334
F443.22688724584737
tp461
a(F592.4301927341618
F447.1502529927269
tp462
a(F599.0169818981008
F448.17916161561834
tp463
a(F604.7926452361237
F444.8495734353381
tp464
a(F611.3909324385035
F445.801965392127
tp465
a(F617.6178223558011
F448.1832017101564
tp466
a(F623.9848512586892
F450.1594070117967
tp467
a(F629.616039742428
F453.72790259187695
tp468
a(F631.2047107514627
F460.20251214531703
tp469
a(F635.3180420835639
F465.4489347166316
tp470
a(F629.6689603651072
F468.9890364358824
tp471
a(F629.6932451089466
F475.6556588712436
tp472
a(F630.7694592420487
F482.2348843259727
tp473
a(F635.5778310709063
F486.85267652570326
tp474
a(F629.4957542839743
F489.5826557201858
tp475
a(F628.9229739275595
F496.2246710098212
tp476
a(F626.2920164681622
F502.3502328037537
tp477
a(F625.0788504257278
F508.9055873020191
tp478
a(F621.6844385525752
F503.16778175635574
tp479
a(F618.8685667750756
F497.12499179003015
tp480
a(F616.252543593957
F490.99303719461
tp481
a(F613.1478164198782
F485.0934513092295
tp482
a(F611.1956684082855
F478.7190052481761
tp483
a(F607.4592238920251
F473.19782540856284
tp484
a(F602.456694688236
F468.79110939664633
tp485
a(F596.0000884250092
F467.13078412547065
tp486
a(F589.3344493381098
F467.0137370937096
tp487
a(F584.2534753544749
F462.69770328683677
tp488
a(F583.0456077505207
F456.1413704478358
tp489
a(F585.3232465102672
F449.8758452404374
tp490
a(F589.2406963432637
F444.48158613928183
tp491
a(F590.2584645678013
F437.89306640526223
tp492
a(F592.783967138612
F431.72327862858197
tp493
a(F594.5385957083174
F425.29165962347776
tp494
a(F592.003206849434
F419.125927892475
tp495
a(F594.1700128650093
F412.82121567578247
tp496
a(F594.0251833895234
F406.15612236304673
tp497
a(F597.784794103019
F400.6506912511888
tp498
a(F600.6265686834092
F394.6200394059326
tp499
a(F606.7980477062222
F392.0986724918512
tp500
a(F613.446335147796
F392.59336283808375
tp501
a(F620.1040323146821
F392.24765649090136
tp502
a(F626.6723070180846
F391.1065115110292
tp503
a(F632.1536906089854
F394.90109691313154
tp504
a(F638.479405061794
F397.0058014306288
tp505
a(F632.0283544951318
F398.6875835303113
tp506
a(F634.755996266099
F404.77070894523735
tp507
a(F636.343376842327
F411.245634995059
tp508
a(F633.0243917621511
F417.0273979166958
tp509
a(F628.1860419679598
F421.61377074426804
tp510
a(F621.5265683751792
F421.92337680283583
tp511
a(F616.9528421184117
F426.7736832439383
tp512
a(F612.4964949678346
F431.73205137448167
tp513
a(F607.0409324926694
F435.56366755098145
tp514
a(F600.3742660397256
F435.5619794638823
tp515
a(F594.6349866856658
F432.17006010450666
tp516
a(F588.888203649554
F428.7908694942714
tp517
a(F582.3246021225614
F427.62314545182676
tp518
a(F575.8937488329162
F425.8657125479853
tp519
a(F569.2805932687235
F426.70869411850174
tp520
a(F564.3483015578025
F431.19388563312236
tp521
a(F557.682033293327
F431.26676821328147
tp522
a(F551.1876319095949
F432.77248900792534
tp523
a(F545.3788427743855
F436.04394330641674
tp524
a(F541.3869627778107
F441.3833569949588
tp525
a(F539.3456588556919
F447.72981449044295
tp526
a(F542.1639937674535
F453.77145605293157
tp527
a(F548.3058970502157
F456.36403556176805
tp528
a(F554.7209227686805
F454.54967907092066
tp529
a(F561.2207538451249
F456.0317858221809
tp530
a(F566.241847644453
F460.41733727015117
tp531
a(F572.4990032225518
F462.71786949463984
tp532
a(F578.7102861104534
F460.29621523960986
tp533
a(F585.3497706876938
F459.69480939242277
tp534
a(F591.9909770942161
F460.2768935018187
tp535
a(F597.3135403458913
F456.26257352499067
tp536
a(F601.8388337643368
F451.3670486377678
tp537
a(F603.8285641663857
F445.00423342973244
tp538
a(F605.0940456288433
F438.45877690534695
tp539
a(F607.1779681922543
F432.12618571420325
tp540
a(F608.9303479337871
F425.6939536221601
tp541
a.