(lp0
(I0
I0
tp1
a(F-74.60781852515635
F-185.56312514860633
tp2
a(F-216.5425116140121
F-44.65697589396123
tp3
a(F-170.96228253761805
F-239.3938309505823
tp4
a(F-99.02659649205543
F-52.77856610562313
tp5
a(F79.04156265085629
F-143.83750690472678
tp6
a(F-117.32065611835259
F-105.865424527889
tp7
a(F-120.48921273146163
F-305.84032357521824
tp8
a(F-120.07900095720574
F-105.84074425991002
tp9
a(F51.80786050041546
F-208.08998317271823
tp10
a(F-79.23588417294859
F-359.17782842170635
tp11
a(F-59.905291655580314
F-160.11419991833694
tp12
a(F-258.9832874773
F-179.29626392634646
tp13
a(F-301.7093472754141
F16.086651944330356
tp14
a(F-261.5695512583684
F-179.84393978577688
tp15
a(F-211.96543301052108
F13.907012348279949
tp16
a(F-34.39580441830415
F105.93432895385168
tp17
a(F104.72483275457625
F-37.75091145939244
tp18
a(F237.44396611105108
F-187.3691979123065
tp19
a(F413.512198526573
F-92.50098651315686
tp20
a(F366.2900596211191
F-286.8462195321173
tp21
a(F168.5117649520431
F-316.57408790158075
tp22
a(F-31.48125028308604
F-318.24557142270635
tp23
a(F-157.38714423141113
F-473.6408926813373
tp24
a(F-62.672517041391046
F-297.4899931768059
tp25
a.