(lp0
(I0
I0
tp1
a(F150.90527765493636
F-131.25394156324057
tp2
a(F-30.67889343140567
F-47.425612157925116
tp3
a(F153.9905240595954
F29.36765736183385
tp4
a(F352.81544839110643
F51.015970565613046
tp5
a(F195.79175518312385
F-72.85315299359102
tp6
a(F389.1480079592875
F-21.732124909638223
tp7
a(F572.2649798288304
F-102.15708753523754
tp8
a(F380.7111411495853
F-44.649462934270716
tp9
a(F580.6225318362056
F-38.69665907881975
tp10
a(F517.4071115552824
F151.05004218027
tp11
a(F386.4447443814548
F302.20843058206384
tp12
a(F347.1953190050965
F106.09753693353221
tp13
a(F528.5717749149056
F21.820723742731758
tp14
a(F611.170149908603
F203.96766565612364
tp15
a(F445.02992254598064
F92.62394175622822
tp16
a(F245.0342413415394
F91.30959797642504
tp17
a(F148.94383612954283
F266.71379982516726
tp18
a(F118.52524758741187
F464.38703896265025
tp19
a(F129.19639101918892
F264.67192511830837
tp20
a(F42.60064037830831
F444.9527504185671
tp21
a(F-147.80820304638553
F383.7606566018785
tp22
a(F-87.50776505964085
F193.0675597719021
tp23
a(F16.673809677386046
F363.7901402506228
tp24
a(F-40.5189879032201
F172.14206719768598
tp25
a.