(lp0
(I0
I0
tp1
a(F-6.409656441813166
F-1.8332345028302963
tp2
a(F-12.979607935029176
F-0.7017833013933266
tp3
a(F-18.85806151988253
F-3.846338579197996
tp4
a(F-24.962019759042512
F-6.5270359248592715
tp5
a(F-29.171412957375967
F-11.696702582030554
tp6
a(F-34.44773497755744
F-15.771609990032921
tp7
a(F-38.35832402204166
F-21.1708449145018
tp8
a(F-38.74759308543312
F-27.826137097473993
tp9
a(F-40.818932954095104
F-34.162855143350406
tp10
a(F-46.14085465350811
F-38.17802560919136
tp11
a(F-50.57907304768537
F-43.152627294756854
tp12
a(F-54.97822577116946
F-48.16180884066901
tp13
a(F-60.981228091465745
F-51.061534273699166
tp14
a(F-67.36257375700238
F-52.99100879837712
tp15
a(F-71.72912300157739
F-58.028636428437316
tp16
a(F-78.37702088199765
F-58.5285346340235
tp17
a(F-83.93223776702749
F-54.84288546396895
tp18
a(F-86.80548655525452
F-48.82716556977537
tp19
a(F-92.10051350074095
F-44.77659350017616
tp20
a(F-98.2800125186404
F-42.2749467760714
tp21
a(F-104.04483941297788
F-38.92663147987127
tp22
a(F-109.5110927114897
F-35.11028252819597
tp23
a(F-113.1779872611109
F-29.542668245004037
tp24
a(F-116.56107027111403
F-23.798175770305114
tp25
a(F-116.13644211255536
F-17.14504602774008
tp26
a(F-114.76558781643834
F-10.620844701657173
tp27
a(F-111.92538601056644
F-4.589451981367238
tp28
a(F-106.23557909372823
F-1.1151834693571798
tp29
a(F-99.65154172237595
F-0.0688105257653524
tp30
a(F-93.08586321771443
F1.0871783227406278
tp31
a(F-86.4198411376162
F1.179882541022989
tp32
a(F-80.68511711217889
F4.579497930521707
tp33
a(F-74.29175166112776
F6.468763039962483
tp34
a(F-68.45809548436335
F9.69566558818777
tp35
a(F-62.79407136078889
F13.211810518649393
tp36
a(F-57.56939368417826
F17.352726796476198
tp37
a(F-50.9598917458038
F18.22389186181615
tp38
a(F-44.299151876207404
F17.942842339465773
tp39
a(F-37.632522446184645
F17.920560346761196
tp40
a(F-31.343286350709175
F20.13188433474055
tp41
a(F-25.07056234192622
F22.38962168750821
tp42
a(F-18.667727313624695
F20.5327027219097
tp43
a(F-12.003492003058465
F20.71273652386552
tp44
a(F-6.497645875419372
F24.47173943197906
tp45
a(F-1.1113993555213222
F28.400198782835396
tp46
a(F4.116713241313919
F32.53677745599721
tp47
a(F10.774260299322668
F32.88536261753381
tp48
a(F16.187855222974093
F28.994677016375583
tp49
a(F22.4435911440396
F26.690287177321622
tp50
a(F27.805691659526275
F22.728933556870405
tp51
a(F32.89083213137312
F18.41780947769689
tp52
a(F34.49293779677893
F11.946511162728012
tp53
a(F35.048350785360505
F5.303021051607251
tp54
a(F31.060726501138117
F-0.03957167218560276
tp55
a(F24.688097323678416
F-1.9976426134524754
tp56
a(F18.620554766464785
F0.7644891286709745
tp57
a(F14.911256720141989
F6.303943293838364
tp58
a(F11.95733100646981
F12.280461286997152
tp59
a(F8.76292138185971
F18.13197319373056
tp60
a(F6.22246777813354
F24.295619836081105
tp61
a(F2.753273488430372
F29.988522033092345
tp62
a(F-3.6123225197061677
F31.969338002747428
tp63
a(F-8.51469383702528
F36.48721359992486
tp64
a(F-9.968844158721845
F42.993356181082625
tp65
a(F-11.685293369203736
F49.43526944907068
tp66
a(F-14.07479096660784
F55.65899387070476
tp67
a(F-19.107341317187714
F60.03139383106095
tp68
a(F-23.947648332575966
F64.6157010242176
tp69
a(F-25.628805201630428
F71.06691455549026
tp70
a(F-28.93578411826067
F76.85555298688391
tp71
a(F-29.91451790908912
F83.44998432029962
tp72
a(F-35.08803251264931
F87.65464733785451
tp73
a(F-38.02924165854776
F93.63743374591955
tp74
a(F-43.76392929202372
F97.03711052333566
tp75
a(F-49.90937487375448
F99.6212821597465
tp76
a(F-55.05041491089578
F103.86559032256345
tp77
a(F-60.886424203831204
F107.08823519552352
tp78
a(F-66.61814920432484
F110.49290448389216
tp79
a(F-72.13392017523863
F114.23732901122199
tp80
a(F-75.07720653303372
F120.21909378931731
tp81
a(F-73.79846498582556
F126.76197270458758
tp82
a(F-71.92820646441986
F133.16092398644258
tp83
a(F-71.00941979645219
F139.7639744559763
tp84
a(F-70.10648147559937
F146.36921077522936
tp85
a(F-72.41582368261895
F152.6231201937709
tp86
a(F-76.26003700926537
F158.06981353410853
tp87
a(F-82.28959224614911
F160.91391411070782
tp88
a(F-85.74624454778167
F166.61444034168534
tp89
a(F-87.03063490687619
F173.1562127200175
tp90
a(F-89.1217961189558
F179.48641723721425
tp91
a(F-91.4656008550684
F185.7274927697984
tp92
a(F-93.56653697907113
F192.05445980363893
tp93
a(F-96.55941584268885
F198.01156653024327
tp94
a(F-100.8502814854743
F203.11381274931267
tp95
a(F-107.30105828813689
F204.79664461455494
tp96
a(F-113.6068438605553
F206.9603249881601
tp97
a(F-119.32464661539099
F210.38832383606507
tp98
a(F-125.95905150012699
F211.04339350399016
tp99
a(F-132.16162647152146
F208.59952195076252
tp100
a(F-137.21055792698735
F204.24604798133862
tp101
a(F-143.4886181989521
F202.00319184105183
tp102
a(F-148.5323224544571
F197.6436629872139
tp103
a(F-155.01816532986928
F196.10149352833153
tp104
a(F-159.5863281020755
F191.24594687207608
tp105
a(F-162.09588076577566
F185.06965430512622
tp106
a(F-162.09163854324865
F178.40298898819358
tp107
a(F-158.55914878600723
F172.74914422914432
tp108
a(F-153.27154590990074
F168.6888855835609
tp109
a(F-150.33820228164538
F162.7022388090286
tp110
a(F-146.42394050510964
F157.305665897523
tp111
a(F-140.16357710889415
F155.01387738377014
tp112
a(F-133.531756463293
F155.69461181732171
tp113
a(F-127.56901956281199
F158.67625785602024
tp114
a(F-120.90261191159354
F158.61749160532614
tp115
a(F-115.64689890728033
F154.5160375630702
tp116
a(F-111.19715688444131
F149.55174099914242
tp117
a(F-108.61950742858612
F143.40355689916836
tp118
a(F-108.75193533503383
F136.73820564855612
tp119
a(F-113.1105121759253
F131.69367867702658
tp120
a(F-119.55314892196589
F129.9799470168732
tp121
a(F-125.72853170853482
F127.46815644363814
tp122
a(F-130.78329515652115
F123.12145528881443
tp123
a(F-136.95933497630452
F120.61128067558639
tp124
a(F-143.15272171946899
F123.07834473921325
tp125
a(F-149.7229811575426
F124.2080063526396
tp126
a(F-156.10798511480195
F126.12534015514419
tp127
a(F-162.14652092734025
F123.30035702508187
tp128
a(F-168.79139358749728
F123.83897727603984
tp129
a(F-174.59291041995724
F120.55464372307534
tp130
a(F-181.0525693084634
F122.20305249779948
tp131
a(F-187.3199894237096
F119.93063318274073
tp132
a(F-191.50350463091416
F114.740002685823
tp133
a(F-192.90508702658798
F108.22233352940046
tp134
a(F-189.7101718268102
F102.37109765048793
tp135
a(F-185.71572680308526
F97.03360260160184
tp136
a(F-179.63362036639182
F94.30368946430671
tp137
a(F-173.08628062235286
F95.559391148853
tp138
a(F-166.46105859537442
F94.81717990016148
tp139
a(F-159.82188671748162
F95.42202799699396
tp140
a(F-153.86177970083986
F92.43512846828158
tp141
a(F-147.2611480287485
F91.49912314039683
tp142
a(F-141.6161778246097
F95.04577731564845
tp143
a(F-134.94952630323394
F95.03156686235924
tp144
a(F-128.97636681375434
F92.07085577248837
tp145
a(F-126.10233648837051
F86.05550922110676
tp146
a(F-120.32991949770889
F82.72029610492282
tp147
a(F-113.7247747693122
F81.81668802540052
tp148
a(F-107.26084826085963
F80.18509416117799
tp149
a(F-102.03085203402449
F76.05089727281688
tp150
a(F-97.25349883570252
F71.40102191288226
tp151
a(F-92.970347424493
F66.29229815512257
tp152
a(F-93.18378547733742
F59.629049049615375
tp153
a(F-96.87989131248855
F54.080783906365085
tp154
a(F-103.2081706908945
F51.983804041586595
tp155
a(F-107.65078710375396
F47.01312965548602
tp156
a(F-107.54044610956309
F40.34737618648903
tp157
a(F-104.45890939159345
F34.43564413063186
tp158
a(F-100.7786798251544
F28.876835374904395
tp159
a(F-98.5275004317541
F22.601754834929284
tp160
a(F-95.65469188217953
F16.585824692221863
tp161
a(F-91.70091587952393
F11.218134335534998
tp162
a(F-89.21087792458313
F5.033948420849165
tp163
a(F-86.06200460274279
F-0.8421932765103053
tp164
a(F-81.02266709357245
F-5.206769076414962
tp165
a(F-74.8354478176614
F-7.689260179367628
tp166
a(F-70.73861281929209
F-12.948574530172372
tp167
a(F-64.78501030810045
F-15.948418123291386
tp168
a(F-58.126028760530005
F-16.268432487907525
tp169
a(F-51.976837839839554
F-18.843679168391276
tp170
a(F-48.95091127794643
F-24.784067445808347
tp171
a(F-43.64792091361541
F-28.824208240416468
tp172
a(F-42.64669916173342
F-35.415262742391306
tp173
a(F-43.353353525680824
F-42.044371585543495
tp174
a(F-43.70638112958547
F-48.70168455365051
tp175
a(F-43.91846805228942
F-55.3649768016059
tp176
a(F-48.012430249310455
F-60.62652771115787
tp177
a(F-47.53471361730295
F-67.27605636091552
tp178
a(F-51.43277648060588
F-72.68434170455106
tp179
a(F-56.88021048361626
F-76.52750540484939
tp180
a(F-63.54224856296699
F-76.77588630935963
tp181
a(F-69.51037012222223
F-79.74673963768085
tp182
a(F-76.09245364177644
F-80.80533350978534
tp183
a(F-82.59511029591023
F-82.27499363474416
tp184
a(F-86.30705683230342
F-87.81267341560935
tp185
a(F-92.18928918249254
F-90.95015441520647
tp186
a(F-98.75109687805526
F-92.12791678975339
tp187
a(F-104.36616270008525
F-88.53410540645639
tp188
a(F-109.17542026267274
F-83.91723567241154
tp189
a(F-111.66442311121604
F-77.73263307690164
tp190
a(F-116.09028576010391
F-72.74703539381251
tp191
a(F-120.06095852456612
F-67.3918321071013
tp192
a(F-124.9412538565422
F-62.85011856294894
tp193
a(F-127.28305395525403
F-56.60829056611038
tp194
a(F-130.39722838628327
F-50.71368607916063
tp195
a(F-136.7039305240212
F-48.552678769988205
tp196
a(F-142.6074368180801
F-45.45541257534953
tp197
a(F-149.17009982309972
F-44.28242547951627
tp198
a(F-154.87174423535558
F-47.73723306325171
tp199
a(F-161.51051507546703
F-47.127998972831456
tp200
a(F-168.1651048807208
F-46.72690176733511
tp201
a(F-172.69306884041276
F-41.833846809113695
tp202
a(F-179.3324789449789
F-41.231619353886316
tp203
a(F-185.1026457573435
F-44.570723934747875
tp204
a(F-189.60605019806894
F-49.48639203661346
tp205
a(F-196.11007474638726
F-50.94998662505568
tp206
a(F-202.49174282154073
F-49.021578726551994
tp207
a(F-206.2077212982914
F-43.48660371262735
tp208
a(F-209.21268400946582
F-37.535583333827105
tp209
a(F-213.01136267954237
F-32.05703564251786
tp210
a(F-218.03627602850324
F-27.675861110513992
tp211
a(F-224.4972831664748
F-26.03274480071575
tp212
a(F-228.07897600413668
F-20.4099411529715
tp213
a(F-232.91195898160908
F-15.817913280243962
tp214
a(F-235.70884405345834
F-9.76631197651359
tp215
a(F-241.8292118228533
F-7.123294229354904
tp216
a(F-248.47458743233233
F-6.590915178878906
tp217
a(F-255.04136081187903
F-5.441162237538438
tp218
a(F-261.61531815284604
F-4.333223013758313
tp219
a(F-268.254711163629
F-3.7308071334804627
tp220
a(F-274.32486831258717
F-6.487188208621587
tp221
a(F-280.66193953347744
F-8.557447319411555
tp222
a(F-287.23038867752064
F-9.697587787320032
tp223
a(F-293.3255460884374
F-12.398235965182252
tp224
a(F-299.9897759254609
F-12.578472264995272
tp225
a(F-306.50007052922325
F-11.143025081478074
tp226
a(F-311.0112501437678
F-6.234491397192903
tp227
a(F-312.118924216042
F0.3395106254760911
tp228
a(F-316.47441476194945
F5.386702572386278
tp229
a(F-322.39030657286713
F8.4602458901161
tp230
a(F-327.8867658074462
F12.232961136070289
tp231
a(F-334.5041987211082
F11.424242348340593
tp232
a(F-341.15646962342083
F10.986365326005444
tp233
a(F-347.809678740849
F11.409747994776138
tp234
a(F-354.4294362585599
F12.199212909230429
tp235
a(F-360.6502054224751
F14.596393639531424
tp236
a(F-367.3077503668453
F14.945019166615651
tp237
a(F-372.9264147002272
F11.356836401868776
tp238
a(F-377.21350542295755
F6.251417948938193
tp239
a(F-381.85987218240535
F1.470652280016238
tp240
a(F-388.42568599694744
F0.31543221560745405
tp241
a(F-395.0838839970312
F-0.02049015060999776
tp242
a(F-401.737482934239
F-0.43770188010902805
tp243
a(F-408.084601673052
F1.601545078906145
tp244
a(F-411.6774229890106
F7.217244450848899
tp245
a(F-415.3749716735409
F12.764548135520641
tp246
a(F-420.92463217910694
F16.458558519561947
tp247
a(F-427.3861785598405
F18.09955297844136
tp248
a(F-431.08340455763357
F23.647071736020052
tp249
a(F-433.7511516686764
F29.756701004311783
tp250
a(F-435.51174854937386
F36.18668880119934
tp251
a(F-432.9944552665344
F42.35983054366853
tp252
a(F-429.4380700619849
F47.99867517012401
tp253
a(F-428.3123893460296
F54.56961782473384
tp254
a(F-429.2129016792561
F61.17518532360564
tp255
a(F-432.25539528734646
F67.10710550927688
tp256
a(F-431.8073722393898
F73.7587007910829
tp257
a(F-431.6594367517304
F80.42372588750493
tp258
a(F-434.6319693604005
F86.39101122799582
tp259
a(F-439.41596779596705
F91.03404939421213
tp260
a(F-440.2011278538201
F97.65431888479911
tp261
a(F-440.4607991863406
F104.31592644180151
tp262
a(F-445.19763752459704
F109.00706777432052
tp263
a(F-451.33660963149435
F111.60658040463821
tp264
a(F-457.67764895049265
F109.54850732542984
tp265
a(F-463.76400922946647
F106.82809136477707
tp266
a(F-470.011213595466
F109.15551097754151
tp267
a(F-476.5357811897649
F107.78640099223385
tp268
a(F-483.19008251068345
F107.38054587662427
tp269
a(F-488.56710499483506
F103.43947068711412
tp270
a(F-494.6710773797195
F100.75880555155312
tp271
a(F-500.05059119626145
F96.82113167703291
tp272
a(F-501.4830167560264
F90.31017157423881
tp273
a(F-501.0350443917841
F83.65857287878825
tp274
a(F-500.1728346748499
F77.04789675236451
tp275
a(F-498.15031115969214
F70.69542927310275
tp276
a(F-492.8627846481521
F66.6350711812338
tp277
a(F-490.9029433091788
F60.26298625002835
tp278
a(F-491.3079401358916
F53.60863263643093
tp279
a(F-493.4396109917145
F47.291954410743024
tp280
a(F-495.3729760510437
F40.91178638851903
tp281
a(F-498.62663939877825
F35.09301338520869
tp282
a(F-500.27844761367555
F28.634222936088808
tp283
a(F-502.38814807579854
F22.310172935925742
tp284
a(F-503.67999363169764
F15.76986869956577
tp285
a(F-502.13306543877064
F9.28515917558768
tp286
a(F-504.8746023602992
F3.208283353889496
tp287
a(F-509.74647012070994
F-1.342469217885304
tp288
a(F-516.3565974779283
F-2.2088760309921582
tp289
a(F-521.4744268291946
F-6.481143248262354
tp290
a(F-525.8481555986037
F-11.51253878986784
tp291
a(F-531.5075993741451
F-15.036051326517985
tp292
a(F-536.8333724025069
F-19.04611193638632
tp293
a(F-543.4510206474698
F-19.85306679905453
tp294
a(F-549.6067697701397
F-22.412597455872874
tp295
a(F-555.6612484319045
F-25.203248379704014
tp296
a(F-558.6865508329522
F-31.14395455209288
tp297
a(F-564.7877952139543
F-33.83082288674115
tp298
a(F-568.4842962122493
F-39.37882476255629
tp299
a(F-573.6976311050747
F-43.534012332292946
tp300
a(F-577.036620285965
F-49.30424592326151
tp301
a(F-581.9074489361736
F-53.85611067353155
tp302
a(F-586.6670738769815
F-58.524131117711775
tp303
a(F-592.7291360564054
F-61.298270007032684
tp304
a(F-599.0367662185425
F-63.456567063080136
tp305
a(F-605.5538740971609
F-62.05237713899765
tp306
a(F-609.8782737458819
F-56.97852139384814
tp307
a(F-615.0109243295663
F-52.72407167264458
tp308
a(F-620.4492393140919
F-48.8680148040898
tp309
a(F-627.0494186996152
F-47.92882551360745
tp310
a(F-632.7282556794639
F-51.420996042196634
tp311
a(F-638.417644250831
F-54.89594958554689
tp312
a(F-634.6248580229304
F-60.37857825014677
tp313
a(F-632.6487593602169
F-66.74564025076104
tp314
a(F-628.7713667303334
F-72.16876396668066
tp315
a(F-623.103347354168
F-75.67846492201265
tp316
a(F-617.1603879073716
F-78.69933854700555
tp317
a(F-612.8813157416516
F-83.811479570589
tp318
a(F-608.2244939266882
F-88.58206182311595
tp319
a(F-607.9380664109798
F-95.24257259352159
tp320
a(F-611.7140197649263
F-100.73680781903424
tp321
a(F-616.5824777083876
F-105.29120807562046
tp322
a(F-622.5690458935088
F-108.22471209118589
tp323
a(F-629.2185510816931
F-107.74666900028856
tp324
a(F-635.7474767890917
F-109.09484315510485
tp325
a(F-629.1074342676152
F-109.69005719847705
tp326
a(F-630.9704425105009
F-116.0911231043543
tp327
a(F-630.0469580336786
F-122.69351818989051
tp328
a(F-629.8866844529045
F-129.3582580065488
tp329
a(F-629.440513084143
F-136.00997775065574
tp330
a(F-633.1667538579775
F-141.53804921725768
tp331
a(F-638.3391484556682
F-145.74408994105292
tp332
a(F-631.7649781774925
F-146.85076496019556
tp333
a(F-631.7365202843748
F-153.5173708877095
tp334
a(F-631.3022366199074
F-160.16987734341632
tp335
a(F-626.3984188111864
F-164.6861828405362
tp336
a(F-620.6634718241272
F-168.08542209367286
tp337
a(F-614.1631623118926
F-166.6054151039606
tp338
a(F-608.3287449670128
F-169.83094121456796
tp339
a(F-601.6751471498832
F-170.24817080643942
tp340
a(F-595.0407506968025
F-169.5930157501396
tp341
a(F-588.6746274060798
F-167.61389506363204
tp342
a(F-585.1246272752037
F-161.97102845921685
tp343
a(F-585.6770559073469
F-155.3272895231333
tp344
a(F-589.8801939489546
F-150.15253590120744
tp345
a(F-590.3232957470752
F-143.50061097371866
tp346
a(F-594.9634772363519
F-138.71384168838446
tp347
a(F-596.293116057685
F-132.18111599008301
tp348
a(F-594.1994926734113
F-125.85172537413374
tp349
a(F-590.7749388877063
F-120.1318586087923
tp350
a(F-584.5076391664091
F-117.85910727002403
tp351
a(F-578.1457540890531
F-115.8664049071612
tp352
a(F-571.9619513941985
F-113.37541540988224
tp353
a(F-565.2960718849257
F-113.47785960103445
tp354
a(F-558.7456697492156
F-112.23823211467882
tp355
a(F-552.6683995535508
F-109.49756952812648
tp356
a(F-547.0485269218397
F-105.91127951645869
tp357
a(F-542.6824102933556
F-100.8732769330017
tp358
a(F-538.4868404250537
F-95.69238531816913
tp359
a(F-532.4615445887017
F-92.8392721888166
tp360
a(F-526.5258345575613
F-89.80417896608627
tp361
a(F-523.7214133837676
F-83.75606634110792
tp362
a(F-522.6572012367685
F-77.17488886662633
tp363
a(F-520.836281434183
F-70.76172307140504
tp364
a(F-519.8890110985383
F-64.16269864686683
tp365
a(F-515.8254105974955
F-58.87766360323941
tp366
a(F-509.78430474000237
F-56.05818058981196
tp367
a(F-503.3420103330316
F-54.34316245044489
tp368
a(F-496.9317522657401
F-52.51203275673982
tp369
a(F-493.00738978078107
F-47.12280057292267
tp370
a(F-489.97532254799165
F-41.18554424189827
tp371
a(F-491.0789158749968
F-34.610855944113034
tp372
a(F-493.67810174527654
F-28.47174548280166
tp373
a(F-494.4219019457351
F-21.846701656060418
tp374
a(F-499.55711735548994
F-17.595348090446198
tp375
a(F-505.2796331760267
F-14.175222781608689
tp376
a(F-511.94339517460514
F-13.978447603431748
tp377
a(F-517.6337911892181
F-10.505144040349169
tp378
a(F-524.1449737564215
F-9.073730046778095
tp379
a(F-528.1332473623709
F-3.731622027603283
tp380
a(F-534.4700752872508
F-1.6606183349685555
tp381
a(F-541.0768948164166
F-2.5518983995258395
tp382
a(F-547.5589535474516
F-0.9938999875055119
tp383
a(F-551.3742815509612
F4.473065959898932
tp384
a(F-553.6667561626163
F10.73317814734108
tp385
a(F-559.2543147784513
F14.369609524261552
tp386
a(F-565.7663472274271
F15.79715210784019
tp387
a(F-572.3142283551384
F14.54427654266794
tp388
a(F-577.8278629574733
F10.796706941395534
tp389
a(F-584.217726056092
F8.895629871586316
tp390
a(F-590.8256094722856
F8.01227195859836
tp391
a(F-597.4628615498762
F8.637835147224592
tp392
a(F-604.0180704709254
F7.423882740479997
tp393
a(F-610.6714939509747
F7.003882217178545
tp394
a(F-617.2708649671968
F6.05902951188949
tp395
a(F-621.4634767808714
F0.875743814160665
tp396
a(F-622.9330687244268
F-5.626928249220781
tp397
a(F-626.2894623879497
F-11.387055506487542
tp398
a(F-630.6796078092916
F-16.404133104443837
tp399
a(F-635.4192066329889
F-21.0924854200075
tp400
a(F-635.7288700066644
F-27.751956347900222
tp401
a(F-637.2998151029793
F-34.23088958947699
tp402
a(F-637.8094698953605
F-40.87804660861286
tp403
a(F-633.8482878828949
F-46.24027389851427
tp404
a(F-633.2280346883347
F-52.878024302008086
tp405
a(F-635.4474321293053
F-59.1644159095567
tp406
a(F-635.7060195464404
F-65.8260656295693
tp407
a(F-639.1261722808148
F-71.54856505883936
tp408
a(F-638.7533423352909
F-78.20479839881213
tp409
a(F-635.0204002947055
F-83.72834691096217
tp410
a(F-628.819503226738
F-86.17647272409269
tp411
a(F-623.3762166100507
F-90.02550835045906
tp412
a(F-617.5021910512365
F-93.17832743484088
tp413
a(F-615.5463873093124
F-99.5516527966532
tp414
a(F-612.6424814404169
F-105.55263397884654
tp415
a(F-612.203643672469
F-112.20484157165865
tp416
a(F-610.9957488970906
F-118.76116940483311
tp417
a(F-608.7544161355883
F-125.0397737001093
tp418
a(F-608.4562469746755
F-131.6997691652673
tp419
a(F-611.0531639660518
F-137.83983973361956
tp420
a(F-613.0378523642614
F-144.20422944563882
tp421
a(F-617.0841143106885
F-149.50255075576533
tp422
a(F-622.059792934625
F-153.93956176270976
tp423
a(F-628.7199072015811
F-153.64405813239074
tp424
a(F-635.2437872189346
F-152.27167554593004
tp425
a(F-630.0017908642017
F-148.15270496319815
tp426
a(F-636.614816611591
F-148.99670431675895
tp427
a(F-630.0185463524051
F-149.9629667615556
tp428
a(F-633.7596323868476
F-155.48100261929918
tp429
a(F-638.2131669229739
F-160.44189715355154
tp430
a(F-632.8417428337359
F-164.39059918054704
tp431
a(F-627.349604640132
F-168.16960202611392
tp432
a(F-626.1126191553299
F-174.72050359420615
tp433
a(F-626.7216344063414
F-181.35929451337807
tp434
a(F-627.2229421984374
F-188.00708624763303
tp435
a(F-629.5112166844522
F-194.268734937962
tp436
a(F-634.8458526970921
F-198.266997442737
tp437
a(F-637.4937541326018
F-204.38525392904666
tp438
a(F-636.3324614186364
F-210.94999639748633
tp439
a(F-639.8223145116923
F-216.63025782046086
tp440
a(F-634.6084885289649
F-220.7848291661331
tp441
a(F-629.4104849370077
F-224.95917978658227
tp442
a(F-623.599082412887
F-228.225989414811
tp443
a(F-617.0431024012825
F-227.01620822307152
tp444
a(F-610.5733706069801
F-225.40778820509166
tp445
a(F-606.3358563685188
F-220.26114682227887
tp446
a(F-602.5992187858311
F-214.74009764480448
tp447
a(F-601.6956288727323
F-208.13495043119974
tp448
a(F-596.4353059701405
F-204.03941049061658
tp449
a(F-589.7773184228515
F-204.3794785199729
tp450
a(F-583.1363384367573
F-204.9641401902929
tp451
a(F-576.8068172398596
F-202.87091161642283
tp452
a(F-571.0377719311412
F-199.52986976239015
tp453
a(F-564.3711314641004
F-199.51117945318114
tp454
a(F-558.0000444326276
F-201.47426235561903
tp455
a(F-552.2916735843368
F-204.91794449873674
tp456
a(F-545.7355169327919
F-203.70912093640464
tp457
a(F-539.6296367979411
F-206.3854378502395
tp458
a(F-533.151775258864
F-207.96079632531433
tp459
a(F-526.9716823650821
F-205.46061707800612
tp460
a(F-520.3067540049307
F-205.3083856801457
tp461
a(F-513.7056879048072
F-206.24132232657195
tp462
a(F-507.4917243942791
F-208.6560897965927
tp463
a(F-501.1858414614016
F-206.49269318910527
tp464
a(F-494.9678554803378
F-204.0883024588497
tp465
a(F-491.0975856743312
F-198.6600931709576
tp466
a(F-491.08172479761527
F-191.99344537187338
tp467
a(F-495.33802413677756
F-186.86232849736245
tp468
a(F-495.00762620511426
F-180.20385407365268
tp469
a(F-493.9963851253949
F-173.61432936217824
tp470
a(F-492.2166833643986
F-167.18960321343454
tp471
a(F-492.3410960773095
F-160.5240975370953
tp472
a(F-488.5057748642238
F-155.07113910731613
tp473
a(F-483.55589237284283
F-150.605368427359
tp474
a(F-481.9194702962702
F-144.14266255197288
tp475
a(F-477.2834383088904
F-139.3518743228361
tp476
a(F-471.55183777287573
F-135.9469955085461
tp477
a(F-464.9172620256718
F-135.2936586130183
tp478
a(F-459.61818495008333
F-139.33893074124617
tp479
a(F-453.08827022634426
F-140.68230639427117
tp480
a(F-448.7692852241726
F-145.76077200855474
tp481
a(F-442.9937761147325
F-149.09062770681237
tp482
a(F-436.36968181611303
F-149.84283723044382
tp483
a(F-430.7875555845451
F-146.19807233003044
tp484
a(F-426.4307310527176
F-141.152031858204
tp485
a(F-420.20788965333
F-138.7602355954524
tp486
a(F-413.5588937379476
F-138.2751605892193
tp487
a(F-406.9074411974845
F-138.72529784207813
tp488
a(F-400.24674212360753
F-139.00731254328818
tp489
a(F-395.6072657681671
F-143.7947652680421
tp490
a(F-389.03145524102285
F-144.89165193290003
tp491
a(F-384.8566446035866
F-150.0892860664259
tp492
a(F-378.50790565679637
F-152.12348326187026
tp493
a(F-372.7404518654805
F-155.4672717135341
tp494
a(F-366.73195960421515
F-158.35560431051087
tp495
a(F-360.0671217716225
F-158.19945979512028
tp496
a(F-355.1612380390791
F-162.71352107596377
tp497
a(F-353.22378840883385
F-169.0924499339075
tp498
a(F-347.6997918556046
F-172.82472893263673
tp499
a(F-341.0335769546456
F-172.7471187614188
tp500
a(F-335.9727284935082
F-177.0867336403969
tp501
a(F-329.51933057220714
F-178.7594857779808
tp502
a(F-322.8579933751735
F-178.4929690020352
tp503
a(F-317.9309257713814
F-174.0020393352394
tp504
a(F-311.478191157459
F-172.3267302751756
tp505
a(F-305.6692425049686
F-175.5979013188807
tp506
a(F-301.9859425106191
F-181.15467606652606
tp507
a(F-295.7967995239983
F-183.63236723687135
tp508
a(F-292.7555173514528
F-189.56490861400488
tp509
a(F-287.07126290466294
F-193.04825410772122
tp510
a(F-281.2434700072316
F-196.28573374303846
tp511
a(F-278.19377267631717
F-202.21395359677683
tp512
a(F-274.1831625688689
F-207.53931283446948
tp513
a(F-267.86870687145165
F-209.67755830442823
tp514
a(F-261.20707547487837
F-209.41849927518336
tp515
a(F-254.56584133262862
F-208.83673169937592
tp516
a(F-248.14609673030384
F-207.03914340241624
tp517
a(F-241.49490099720848
F-206.5852273699844
tp518
a(F-235.69915558705563
F-209.8797348574758
tp519
a(F-229.04904628112646
F-209.4101705236102
tp520
a(F-222.43218680327647
F-210.22356777884957
tp521
a(F-215.76734897423378
F-210.3797124457653
tp522
a(F-209.22506117147097
F-209.09795008469152
tp523
a(F-203.4706531271109
F-212.464139696619
tp524
a(F-198.36363246472683
F-216.74932165289886
tp525
a(F-197.1026929456592
F-223.2956546702222
tp526
a(F-200.3543133226717
F-229.11556956377876
tp527
a(F-201.07082227963463
F-235.74362051100573
tp528
a(F-197.39619077311116
F-241.3061314310588
tp529
a(F-191.2270441556134
F-243.83319978317368
tp530
a(F-187.5108379644091
F-249.36802191120086
tp531
a(F-185.0229203686265
F-255.55306115772467
tp532
a(F-180.44309735441215
F-260.3976112506556
tp533
a(F-175.3302871479406
F-264.6758838269467
tp534
a(F-168.68028020196647
F-264.20487208299517
tp535
a(F-162.70231423153277
F-267.1558663731932
tp536
a(F-156.08984408237777
F-266.3075250674804
tp537
a(F-149.44900216139237
F-266.8937528601749
tp538
a(F-143.7363556202715
F-263.4571682270451
tp539
a(F-139.59157182417394
F-258.2355581565734
tp540
a(F-135.79389790518726
F-252.7563139341014
tp541
a.