(lp0
(I0
I0
tp1
a(F150.84393421090374
F-131.3244360801772
tp2
a(F208.48861727459163
F60.1882019218277
tp3
a(F148.0319843349769
F-130.4554329931746
tp4
a(F-34.48085035433317
F-48.66872763299659
tp5
a(F134.09816781862057
F-156.28431494191267
tp6
a(F73.31201406167156
F-346.8231390997114
tp7
a(F-109.12532933233541
F-428.7781007270417
tp8
a(F81.34824301387371
F-489.7684133813759
tp9
a(F252.9905383801909
F-387.1091593348852
tp10
a(F58.93911921916333
F-338.6938030768634
tp11
a(F257.54479290207365
F-315.1186809996112
tp12
a(F191.508938314796
F-503.9023294147425
tp13
a(F243.10272741404967
F-310.67168762524335
tp14
a(F182.9180739341635
F-119.94201640048078
tp15
a(F291.4263096396394
F-287.94785791822346
tp16
a(F185.64688011501113
F-118.21067198230605
tp17
a(F371.5009185931531
F-192.090820746134
tp18
a(F560.4833008787191
F-126.62587451021173
tp19
a(F391.88095617008344
F-19.0468367809664
tp20
a(F271.2996454364429
F140.51552564124526
tp21
a(F81.16080756101931
F78.48954454152081
tp22
a(F-106.49443134215514
F9.312154360967483
tp23
a(F87.42453204382329
F58.255342235354654
tp24
a(F-39.338891421938996
F212.9519306632829
tp25
a.