(lp0
(I0
I0
tp1
a(F178.57707009013885
F-90.05681561115537
tp2
a(F-14.52511834444283
F-37.9843197829803
tp3
a(F-138.28548053181186
F119.12510944152945
tp4
a(F-163.77204123170924
F317.49455069620063
tp5
a(F-308.01740754250164
F178.95475750353953
tp6
a(F-212.67032665766743
F354.76412632881255
tp7
a(F-406.84637147113864
F306.8510423057941
tp8
a(F-606.7717583654955
F301.3884719271465
tp9
a(F-416.5226207144437
F239.7016368403054
tp10
a(F-442.18894710390083
F41.35537473872242
tp11
a(F-446.69092964013544
F-158.59394922423436
tp12
a(F-374.75342142678335
F28.020613208749154
tp13
a(F-559.4632505507909
F-48.67540379982779
tp14
a(F-421.8086604553072
F96.41496054475692
tp15
a(F-530.7603411433305
F264.1335679658031
tp16
a(F-340.905186406404
F327.0225194582371
tp17
a(F-306.6662917810859
F129.97506807954926
tp18
a(F-359.7987345001053
F-62.838166763679595
tp19
a(F-267.14981054536975
F-240.08425808879073
tp20
a(F-92.83241879724511
F-338.1324448855431
tp21
a(F-207.96562903890265
F-501.66942510546244
tp22
a(F-262.8020197018331
F-309.3338582982219
tp23
a(F-462.7388349083527
F-314.36077833677587
tp24
a(F-266.25164979183944
F-277.0407289666446
tp25
a.