(lp0
(I0
I0
tp1
a(F-198.4309703931136
F25.00299959699397
tp2
a(F-96.4216651025254
F-147.02636311220047
tp3
a(F54.070437435287545
F-278.7538358494712
tp4
a(F214.48860849329685
F-159.3134306492072
tp5
a(F369.1493930986931
F-32.50632633228331
tp6
a(F171.43041074543268
F-62.62615397440456
tp7
a(F289.4857062507801
F98.8140739836391
tp8
a(F404.98796716582694
F262.0906115617996
tp9
a(F210.2106574833778
F307.4976554302051
tp10
a(F385.77984811823796
F403.2862732290862
tp11
a(F185.88712237821636
F409.83594468836645
tp12
a(F12.569516463129588
F509.64079166416553
tp13
a(F85.43696973721
F323.38737759250427
tp14
a(F-91.2211784945884
F417.1525025767538
tp15
a(F-291.162001773257
F422.01739585905887
tp16
a(F-266.4735325327051
F223.5470467220698
tp17
a(F-466.37528930560944
F229.81503197305796
tp18
a(F-319.48908456797767
F365.5516993027611
tp19
a(F-120.26997082405117
F383.20799333872696
tp20
a(F61.0831220761996
F298.8809176422876
tp21
a(F191.8793796585611
F147.57877290385855
tp22
a(F105.74940818618975
F328.08259007725934
tp23
a(F-50.49268095895127
F452.93614260806163
tp24
a(F13.655389448168876
F263.5027108621231
tp25
a.