(lp0
(I0
I0
tp1
a(F-197.74302054437857
F29.961605864597367
tp2
a(F-343.4990167417154
F166.91119356942372
tp3
a(F-289.244830452663
F359.41179946486704
tp4
a(F-296.0547047923568
F159.52776905853972
tp5
a(F-371.7385120047612
F344.6546480519361
tp6
a(F-198.2952737079234
F444.241008007034
tp7
a(F-0.2219230530064067
F471.9348297067252
tp8
a(F136.60595888934645
F326.06457666255744
tp9
a(F325.59480865022977
F391.5108497883685
tp10
a(F457.29191535326606
F240.99217292051574
tp11
a(F466.5365144484767
F440.7784021445762
tp12
a(F364.9370410478901
F268.5066778114068
tp13
a(F183.1432724035794
F185.13386640325746
tp14
a(F59.34691352903069
F342.214933147165
tp15
a(F253.04363424946047
F392.03039643068604
tp16
a(F452.0240842807873
F412.19919672546416
tp17
a(F364.5737728139754
F232.33134794654094
tp18
a(F358.2565495467041
F432.231554775327
tp19
a(F179.51689889641347
F342.49785271522
tp20
a(F202.66734213387957
F143.8422286369955
tp21
a(F33.80313073034441
F251.0097522020298
tp22
a(F233.58265252743473
F241.6213193974609
tp23
a(F33.62238844749655
F245.60789550753094
tp24
a(F215.36502798155536
F162.12368756858496
tp25
a.