(lp0
(I0
I0
tp1
a(F10.471766201201813
F-199.72566713526675
tp2
a(F-189.13480673402518
F-187.1870850362445
tp3
a(F-117.04055549160341
F-373.7411494191857
tp4
a(F-232.04268015533302
F-210.11196093856043
tp5
a(F-138.18689498097734
F-386.721959492734
tp6
a(F-93.62564913272632
F-191.7494091979509
tp7
a(F-168.88910887091384
F-377.04757872004365
tp8
a(F-364.09351327875936
F-333.5132187295913
tp9
a(F-246.92597300356272
F-171.4275392083573
tp10
a(F-68.69826149737219
F-262.17379450997356
tp11
a(F-239.00224046097392
F-367.03825345181474
tp12
a(F-375.7405177301964
F-221.0840019568849
tp13
a(F-496.91378901489
F-380.19728966776734
tp14
a(F-617.8944875303332
F-220.93753145271967
tp15
a(F-426.3013706459703
F-163.5609023905759
tp16
a(F-607.4186095487314
F-248.39335945884767
tp17
a(F-508.5453852602548
F-74.54260300722734
tp18
a(F-337.351072376875
F28.861977338071952
tp19
a(F-155.47764860230765
F112.06088192531185
tp20
a(F-340.3650063412597
F35.79381859972695
tp21
a(F-393.5535480289234
F-157.00394858946964
tp22
a(F-516.0056810090965
F-315.13514452691265
tp23
a(F-363.7940310511915
F-185.39843570056624
tp24
a(F-526.6513773716756
F-69.30586595792556
tp25
a.