(lp0
(I0
I0
tp1
a(F187.19014500458658
F-70.42619976373743
tp2
a(F51.55676473209212
F-217.4077841743598
tp3
a(F-132.89620136423144
F-294.71951225146665
tp4
a(F-126.60557965818354
F-94.81846653496373
tp5
a(F-131.94087836425896
F105.1103572692015
tp6
a(F-150.58803781588236
F304.2391684552921
tp7
a(F-56.98782705324551
F480.98474985745884
tp8
a(F-68.10057188374577
F281.29372125994723
tp9
a(F-135.76022351166785
F469.50150946646175
tp10
a(F-199.10182732880378
F279.79689374540715
tp11
a(F-261.31437911087403
F89.71901917615796
tp12
a(F-258.83732302555893
F-110.26564071842049
tp13
a(F-380.4546556891264
F48.50848940295404
tp14
a(F-455.5038195529517
F-136.87657742644487
tp15
a(F-637.5954971819245
F-219.59671365859958
tp16
a(F-548.7888779882403
F-398.79879062030216
tp17
a(F-483.83950438050476
F-209.63859695376252
tp18
a(F-533.9622189724591
F-403.25603801198304
tp19
a(F-369.2509272614086
F-289.8091765178138
tp20
a(F-491.9039093007375
F-131.8337164081497
tp21
a(F-332.9669309421828
F-253.2381517070807
tp22
a(F-171.60949223037818
F-371.40657799924315
tp23
a(F-362.3347338773917
F-311.2078886556345
tp24
a(F-236.41624031681442
F-466.593000488895
tp25
a.