(lp0
(I0
I0
tp1
a(F126.37092574124593
F155.01738330684242
tp2
a(F194.32009592117635
F-33.08607299276642
tp3
a(F382.2436298164435
F35.35912704576343
tp4
a(F262.83527009344243
F-125.0828987089072
tp5
a(F174.11996890919096
F-304.3302008804812
tp6
a(F284.5146241988949
F-137.55784081003233
tp7
a(F312.75394285525766
F-335.5541561338898
tp8
a(F170.42146799741224
F-195.04982666023696
tp9
a(F242.95837466244373
F-381.4322216750787
tp10
a(F178.50127181397536
F-192.10371908663598
tp11
a(F149.9269525758236
F-390.05196555544455
tp12
a(F241.33809058702948
F-212.1643497765594
tp13
a(F241.2950299618507
F-12.164354412103052
tp14
a(F439.64680101376996
F13.459363518107637
tp15
a(F567.7277301468855
F-140.14817403261875
tp16
a(F380.3959967077182
F-210.19688313333506
tp17
a(F219.59703342336184
F-91.26962214294561
tp18
a(F35.532986195829125
F-13.03646729015567
tp19
a(F3.706132477555901
F-210.4878572128291
tp20
a(F-93.02438473125888
F-385.53986959919155
tp21
a(F-292.24279449315424
F-403.2041049899903
tp22
a(F-401.8873550162429
F-235.9376398880496
tp23
a(F-230.55338710373337
F-339.11065690003375
tp24
a(F-55.53184318931923
F-435.89629202123757
tp25
a.