(lp0
(I0
I0
tp1
a(F-1.6910309400936627
F6.448632320429689
tp2
a(F-5.223209817280128
F12.102671303670096
tp3
a(F-4.0167478624214406
F18.659262948413804
tp4
a(F1.3680227713834103
F22.589745064612448
tp5
a(F4.90895906043605
F28.238303698575148
tp6
a(F10.644598916625734
F31.636373722063897
tp7
a(F17.212637125496055
F32.77887909678385
tp8
a(F23.757953300813835
F34.04508627160474
tp9
a(F30.31481880839827
F35.25005895174895
tp10
a(F36.077081257533834
F31.89733231336539
tp11
a(F38.607809585594715
F25.729686200463433
tp12
a(F38.524435703672104
F19.063540894497052
tp13
a(F40.27451751351135
F12.630683201114255
tp14
a(F45.069784758722946
F7.999284223327388
tp15
a(F51.66930221038455
F7.055454869228699
tp16
a(F58.30840250283346
F6.4498215220216295
tp17
a(F64.87887408563859
F5.321394464567395
tp18
a(F70.46058291195108
F8.966798560509247
tp19
a(F76.99832264006004
F7.662036631286047
tp20
a(F83.56436642490291
F6.5081243902682475
tp21
a(F90.0662063145775
F5.03485506883349
tp22
a(F95.9723427738644
F8.127102886962964
tp23
a(F102.63299258585279
F7.843927099679743
tp24
a(F109.29642378786197
F8.051602472642026
tp25
a(F113.96255294811722
F12.813081560515881
tp26
a(F120.40325374884591
F14.534074773732387
tp27
a(F125.2190735549751
F19.144099072945817
tp28
a(F125.75501273623252
F25.789188510902058
tp29
a(F130.50832425856458
F30.463637571070507
tp30
a(F132.70159260426178
F36.75919301981426
tp31
a(F135.20489834050625
F42.93802016056921
tp32
a(F133.10663862070658
F49.26587529423897
tp33
a(F133.6876520565045
F55.90717545549254
tp34
a(F135.4577366847909
F62.33455788173331
tp35
a(F139.93242122601617
F67.27638372862067
tp36
a(F145.66524920757175
F70.67919547456516
tp37
a(F147.90316230297213
F76.95901947065613
tp38
a(F152.42731147201198
F81.85560182375922
tp39
a(F158.93440936006954
F83.3054713074305
tp40
a(F165.52765071093233
F82.31875304281921
tp41
a(F172.03782132468334
F80.88274363327571
tp42
a(F178.68052544389695
F81.44747934936493
tp43
a(F185.17103643225616
F82.96988256613533
tp44
a(F190.22465046532275
F87.31792001413838
tp45
a(F192.410636895575
F93.6160076422361
tp46
a(F189.64550493267262
F99.68218351111594
tp47
a(F183.96615610950752
F103.17352156253087
tp48
a(F179.90147730613978
F108.4577273372805
tp49
a(F175.7136890609875
F113.64491097179824
tp50
a(F172.40006111481512
F119.42974582499758
tp51
a(F173.5557678830825
F125.99547398798342
tp52
a(F175.484865511035
F132.37693360050721
tp53
a(F172.7653609079915
F138.46370114646047
tp54
a(F173.4564819578449
F145.09444741961056
tp55
a(F170.38833834141687
F151.01314146419645
tp56
a(F168.5821468764335
F157.43047088041516
tp57
a(F168.4215466305737
F164.09520283342528
tp58
a(F164.3756899834179
F169.39383364101226
tp59
a(F159.45235716147678
F173.8888573749698
tp60
a(F158.15201971469142
F180.4274785575229
tp61
a(F153.7725833763175
F185.45390689209356
tp62
a(F151.387943939003
F191.6794943501933
tp63
a(F145.5108637981738
F194.82661580681287
tp64
a(F139.94363275066917
F198.494092174582
tp65
a(F133.33969128469997
F197.5817317422434
tp66
a(F127.73498561845982
F193.97178453497568
tp67
a(F121.11204178576209
F193.20951198963803
tp68
a(F116.10863216021943
F188.8037956388647
tp69
a(F111.06347248470017
F184.4459511839812
tp70
a(F104.51226314785845
F183.21059671285872
tp71
a(F98.55147173652435
F186.19613019868837
tp72
a(F93.10498069523962
F190.04063013777662
tp73
a(F91.7889693925547
F196.57611471779438
tp74
a(F95.10526125056958
F202.35942283313017
tp75
a(F94.97287984628117
F209.02477500748998
tp76
a(F97.39033466003177
F215.23769353809365
tp77
a(F102.7016057190275
F219.26694212589743
tp78
a(F108.99523325689387
F221.4657365362629
tp79
a(F113.24612396915683
F226.60133509892734
tp80
a(F114.19371135609725
F233.20031400392133
tp81
a(F110.4383488852817
F238.70864380134947
tp82
a(F106.53105573563799
F244.11026436255068
tp83
a(F100.42513968491025
F246.7864993346542
tp84
a(F96.37247968406623
F252.07992840870472
tp85
a(F93.89147027724911
F258.26774197794947
tp86
a(F93.95896359892448
F264.934066984726
tp87
a(F89.9760768573686
F270.28019246477066
tp88
a(F87.47834395053513
F276.4612744712292
tp89
a(F83.3188072743496
F281.67114002457237
tp90
a(F78.61055532726172
F286.39097138249053
tp91
a(F73.83436654737781
F291.0420427841523
tp92
a(F73.60660326103304
F297.7048176062394
tp93
a(F78.1390707114278
F302.593701247272
tp94
a(F82.95651864695118
F307.2020241345018
tp95
a(F83.68961955174596
F313.8282604348335
tp96
a(F84.9327648299679
F320.3779958693132
tp97
a(F87.83759243119967
F326.378530933086
tp98
a(F90.25401992387833
F332.591849097889
tp99
a(F88.07560402147588
F338.8925592642595
tp100
a(F86.83400426457221
F345.4425878510751
tp101
a(F87.35554759978157
F352.08882264936074
tp102
a(F91.55912531418997
F357.26321912077395
tp103
a(F91.83573286169985
F363.9241449354866
tp104
a(F94.28972164799619
F370.1227240856771
tp105
a(F100.40698539891363
F372.77291816275067
tp106
a(F106.63489767899047
F370.3943570270822
tp107
a(F112.94228261288991
F372.553370630574
tp108
a(F117.16194245964066
F377.71466070401146
tp109
a(F123.4160236912623
F380.0235375722577
tp110
a(F126.3721885752477
F385.9989483215816
tp111
a(F128.2702062555105
F392.3897208359068
tp112
a(F134.10296845272643
F395.61823900918273
tp113
a(F140.764852021915
F395.3657479102909
tp114
a(F147.15639068516316
F393.47031182309394
tp115
a(F153.06443811697454
F396.5589069710392
tp116
a(F158.68792398875505
F400.1395285782926
tp117
a(F165.3463434758521
F399.8080253682167
tp118
a(F170.87787741839728
F396.08692651345416
tp119
a(F174.676240978938
F390.6081603470258
tp120
a(F176.76213025210998
F384.27621669720463
tp121
a(F181.10376323942012
F379.2170994374502
tp122
a(F187.68162946350017
F378.13260859721635
tp123
a(F193.19535212904964
F374.3851685627594
tp124
a(F199.20386606038056
F371.4968810456575
tp125
a(F205.58824634782204
F369.57747155579534
tp126
a(F211.1322711795937
F365.87500844198263
tp127
a(F216.81960116652746
F362.3966867110083
tp128
a(F220.8646406722977
F357.09743206141815
tp129
a(F220.92799024665646
F350.43106638918914
tp130
a(F219.5731560456887
F343.90351947382095
tp131
a(F214.28945146946091
F339.8381891802785
tp132
a(F210.87656986681353
F334.11135029562706
tp133
a(F205.956345923845
F329.6129238156806
tp134
a(F199.904049076848
F326.81754417772896
tp135
a(F193.4534739374121
F325.1339394690945
tp136
a(F186.9591681958015
F323.6278062150535
tp137
a(F181.0608049632992
F326.7348555583871
tp138
a(F174.62590631192194
F328.47741797934873
tp139
a(F167.96115871982084
F328.3174680558505
tp140
a(F162.0052675390116
F331.31276515076496
tp141
a(F157.3213746368427
F336.0567710240177
tp142
a(F150.6671636286562
F336.4641041836967
tp143
a(F144.07125369824658
F335.49538511483917
tp144
a(F137.72447840819135
F337.53570074287046
tp145
a(F131.42104699469098
F335.3651715770353
tp146
a(F125.36895423917258
F338.16099305256733
tp147
a(F123.03392655406442
F344.40535772435123
tp148
a(F119.09121746760428
F349.7811822661298
tp149
a(F115.78080712195907
F355.5678590143066
tp150
a(F113.76742005989178
F361.92322816037074
tp151
a(F113.05487536756468
F368.55170645526476
tp152
a(F113.63328013553576
F375.19323431930576
tp153
a(F111.37540724362505
F381.46590954192163
tp154
a(F114.15129233294782
F387.52717231590856
tp155
a(F119.4600897918079
F391.5596794746431
tp156
a(F121.33105496614631
F397.95842417660276
tp157
a(F126.74313608515423
F401.85121525829754
tp158
a(F132.62290190537314
F404.99331620254327
tp159
a(F138.24860170330618
F408.570458389818
tp160
a(F144.46425847204642
F410.98086403569135
tp161
a(F149.96229788755645
F414.75127608611007
tp162
a(F156.585639221291
F413.992465160195
tp163
a(F163.12831843329343
F415.2722280965531
tp164
a(F167.34835189016601
F420.4332126990607
tp165
a(F172.65975952482364
F424.4622812493518
tp166
a(F178.16637329221777
F428.2201595418448
tp167
a(F183.82751648385891
F431.74094101875863
tp168
a(F185.5592981027581
F438.17874940895535
tp169
a(F186.92283381457318
F444.70448421869514
tp170
a(F186.25421621908313
F451.33753743387786
tp171
a(F188.8236822562003
F457.48914606321586
tp172
a(F186.4464899862187
F463.7175809674261
tp173
a(F181.43958963803533
F468.11932986392236
tp174
a(F179.3471228974926
F474.4491029549713
tp175
a(F176.36311055246694
F480.4106560050732
tp176
a(F174.20424647317162
F486.71809211902416
tp177
a(F172.86162428766906
F493.24816180559264
tp178
a(F170.55504507829534
F499.50309080561567
tp179
a(F167.73395530852912
F505.54344650336765
tp180
a(F168.35758422800757
F498.90601240461876
tp181
a(F161.6934221488823
F498.72328794650446
tp182
a(F156.9353282868533
F494.0537068898607
tp183
a(F151.07252299891306
F490.8800719706955
tp184
a(F145.32831366120362
F487.4965082386201
tp185
a(F138.7404997879016
F486.4741810819947
tp186
a(F132.3813516788754
F484.4727616427184
tp187
a(F125.78345873566006
F483.5176421976679
tp188
a(F120.82658141907106
F479.05963684631064
tp189
a(F118.07500081774495
F472.98730215207235
tp190
a(F119.48104807606602
F466.47059473560716
tp191
a(F123.13688153152886
F460.89571122199334
tp192
a(F124.39081054783226
F454.3480317501104
tp193
a(F127.75989087715016
F448.59531568037016
tp194
a(F133.5048898520875
F445.2130928576671
tp195
a(F136.0932057641447
F439.06939159671407
tp196
a(F141.89200804313103
F435.7802676139996
tp197
a(F148.23820677668868
F433.73815937038574
tp198
a(F154.41188578309834
F436.2541347220657
tp199
a(F160.96593802481505
F437.4743165352774
tp200
a(F167.62254817301337
F437.10827585536964
tp201
a(F173.24019205199025
F440.6980560287839
tp202
a(F178.03038273675082
F445.3347054276578
tp203
a(F180.9554189168096
F451.32541555165744
tp204
a(F185.9253329869916
F455.76888250657584
tp205
a(F189.52884500451694
F461.3777278052086
tp206
a(F195.51304354658532
F464.31606275098164
tp207
a(F199.7045691185008
F469.50022689039923
tp208
a(F205.83298868034433
F472.1245207227393
tp209
a(F211.01731091829697
F476.3158507476257
tp210
a(F216.72949965981203
F479.7531962679004
tp211
a(F223.3949423749048
F479.6254549031774
tp212
a(F228.97450601399888
F475.97676828444133
tp213
a(F234.77118294172166
F472.68390007571344
tp214
a(F238.63916449006817
F467.25406000568415
tp215
a(F241.0376901233869
F461.03380926871563
tp216
a(F242.85480039577993
F454.61956303845534
tp217
a(F240.21645897518658
F448.49717796457884
tp218
a(F242.39055523562212
F442.19497597679674
tp219
a(F246.21472907985907
F436.73419408649033
tp220
a(F252.7111047796891
F435.23701433405495
tp221
a(F257.7658065369648
F430.89024144035113
tp222
a(F261.62081380847764
F425.45118238744243
tp223
a(F266.78687015800847
F421.23735915456746
tp224
a(F270.95123816391487
F416.03135458716383
tp225
a(F277.3283023181198
F414.08777613039933
tp226
a(F283.9460964644627
F413.2820186724292
tp227
a(F290.57587804116554
F412.58170396484707
tp228
a(F295.21151745074735
F407.79053587044916
tp229
a(F296.0252620212487
F401.17371909662023
tp230
a(F300.59987346046057
F396.32424751461497
tp231
a(F301.9868149434471
F389.80344712147183
tp232
a(F300.7694997218666
F383.24886184887424
tp233
a(F301.86572749052596
F376.6729414476175
tp234
a(F298.271695076517
F371.0580170980383
tp235
a(F293.1657973703525
F366.77149717406405
tp236
a(F287.66537519805166
F363.00456203115203
tp237
a(F281.40674494729126
F360.7080447051318
tp238
a(F275.9349497041746
F356.8996459258742
tp239
a(F274.3438952373427
F350.425621665183
tp240
a(F268.73126955640214
F346.828000588681
tp241
a(F262.1594069147618
F347.9482978098936
tp242
a(F256.18268387398746
F344.99478699421655
tp243
a(F249.56668944890282
F345.81519068246604
tp244
a(F243.3981275577392
F348.34368601355294
tp245
a(F237.11738736843984
F346.1083455207053
tp246
a(F233.89719501652885
F340.2709826177209
tp247
a(F227.80097557259725
F337.57273264118527
tp248
a(F222.48507886469045
F333.5495887666376
tp249
a(F217.84208371736494
F328.7655485801053
tp250
a(F212.62167614795447
F324.6192503209727
tp251
a(F207.489213905112
F320.36457339196375
tp252
a(F206.80352396779196
F313.73326328352346
tp253
a(F209.37465936635093
F307.5823521959917
tp254
a(F209.6209593550085
F300.9202368592513
tp255
a(F209.18779375976132
F294.26765750898886
tp256
a(F211.86622838441065
F288.1627060426851
tp257
a(F210.87092658670267
F281.57075498279977
tp258
a(F209.423192075506
F275.06318176158015
tp259
a(F205.29013857730803
F269.83228191303806
tp260
a(F204.00284153021877
F263.29108089510567
tp261
a(F199.72119393175174
F258.1810967183213
tp262
a(F198.1243805924745
F251.70849047323344
tp263
a(F194.52401713950346
F246.09762356597616
tp264
a(F188.24700680196827
F243.8518306844039
tp265
a(F181.7907584854281
F242.1901140660791
tp266
a(F177.99458920286287
F236.70982728320428
tp267
a(F176.81265068169193
F230.14877052559146
tp268
a(F180.52326100104207
F224.61019530245179
tp269
a(F185.00460255404815
F219.67440536266042
tp270
a(F189.22503508090506
F214.5137470974105
tp271
a(F191.09647271772607
F208.11514056036398
tp272
a(F187.9109299224945
F202.25879685936823
tp273
a(F188.99759848052364
F195.68129004527557
tp274
a(F193.1759724116444
F190.48652000838513
tp275
a(F197.3033274518057
F185.2511227152564
tp276
a(F202.61641067290887
F181.22426399783453
tp277
a(F204.8439993718584
F174.9407703014299
tp278
a(F207.072523674972
F168.6576083685432
tp279
a(F210.11630188805975
F162.7263472350256
tp280
a(F209.62973003123466
F156.07746069120563
tp281
a(F209.57752043741232
F149.41099846580022
tp282
a(F206.96444095584187
F143.2777888601011
tp283
a(F203.803282306538
F137.4082471029981
tp284
a(F199.2136666641535
F132.57297330520504
tp285
a(F192.91848638182324
F130.37862837848888
tp286
a(F186.2796784462252
F130.98745810730057
tp287
a(F180.92969846782125
F127.0097503911503
tp288
a(F177.10984507021382
F121.54594544722787
tp289
a(F170.9108453383063
F119.0930192827755
tp290
a(F165.8677646035532
F114.73276915838967
tp291
a(F160.32824057641844
F111.02357544583688
tp292
a(F154.64295463007556
F107.54191375165111
tp293
a(F148.11614294180796
F106.18354206822349
tp294
a(F141.80690597606576
F104.0299466200122
tp295
a(F138.28789239897282
F98.36770431782485
tp296
a(F133.92389980568788
F93.32786175181164
tp297
a(F129.29977381177454
F88.52558070663537
tp298
a(F123.91680197475266
F84.59263541763455
tp299
a(F122.20378022681831
F78.14980987789282
tp300
a(F121.29611423010503
F71.54522155742538
tp301
a(F116.10971012834952
F67.35646793161519
tp302
a(F110.59005888705641
F63.61776566760218
tp303
a(F107.83341564126046
F57.547727573829455
tp304
a(F105.75605959021826
F51.21297925352163
tp305
a(F106.58013252899379
F44.597440860010316
tp306
a(F105.2433696816385
F38.06616919712758
tp307
a(F106.65870149584234
F31.551471943981664
tp308
a(F103.83038058874791
F25.514498754465492
tp309
a(F104.18300538386424
F18.85716443821596
tp310
a(F102.76314358517725
F12.343452983363683
tp311
a(F105.66972508113494
F6.343767287279196
tp312
a(F109.88184701337491
F1.176323695677306
tp313
a(F115.1231559976205
F-2.9435215169624787
tp314
a(F118.30682829637023
F-8.80088228258193
tp315
a(F124.01304425744975
F-12.248133919751139
tp316
a(F130.43332119438276
F-14.04381999964663
tp317
a(F136.4246409995256
F-16.967607173321856
tp318
a(F143.07887955807422
F-16.560724327321747
tp319
a(F149.7214816155694
F-17.12665926192584
tp320
a(F154.77850729624214
F-21.47072828870945
tp321
a(F155.51235630091347
F-28.09688177944503
tp322
a(F154.21295632869993
F-34.635689327970674
tp323
a(F154.56698236128983
F-41.292949275779016
tp324
a(F158.75901966721366
F-46.47669962375946
tp325
a(F165.15365263008044
F-48.36167010487105
tp326
a(F171.04172434034194
F-51.48817869741686
tp327
a(F177.57301514687128
F-50.15150938715724
tp328
a(F184.2333487864433
F-49.86099216902739
tp329
a(F190.09238895811217
F-46.68041160705216
tp330
a(F193.61871985008068
F-41.02272348514291
tp331
a(F193.54239717660548
F-34.356493719078884
tp332
a(F189.6796517392254
F-28.922927474848148
tp333
a(F185.06272343081528
F-24.113726144123298
tp334
a(F178.87823787692534
F-21.62443249367324
tp335
a(F172.45319999179569
F-23.403008502477178
tp336
a(F166.47109146651093
F-26.345596145379243
tp337
a(F159.87696051464192
F-27.326351687829927
tp338
a(F154.98545875218304
F-31.855993500634327
tp339
a(F148.32065197257813
F-32.013457893361256
tp340
a(F141.92450971927693
F-30.13361515526333
tp341
a(F135.40784080015433
F-31.53984082811463
tp342
a(F128.9722513140154
F-29.79983151482274
tp343
a(F122.76733269620847
F-27.361916546896822
tp344
a(F116.4266769576471
F-25.30266200957189
tp345
a(F109.76423446440128
F-25.0653763828752
tp346
a(F104.4677500455827
F-29.11404248983641
tp347
a(F101.95159402374358
F-35.28764786418673
tp348
a(F98.12757773016392
F-40.74854008349318
tp349
a(F97.40481129941577
F-47.37591159345307
tp350
a(F97.91281082286928
F-54.02319531905223
tp351
a(F93.95648481243614
F-59.38900643607961
tp352
a(F90.35927120817126
F-65.00189328063084
tp353
a(F83.93443113006073
F-66.78118370525213
tp354
a(F78.16820856850651
F-70.12709491373744
tp355
a(F71.51577233665095
F-70.56245295666275
tp356
a(F66.02399940796766
F-74.34198659776528
tp357
a(F59.77512527109813
F-76.66491932731375
tp358
a(F53.53192659190358
F-74.32677589789206
tp359
a(F47.228502158367185
F-72.15622646165689
tp360
a(F41.12853580615632
F-69.4664578942259
tp361
a(F34.97620248326748
F-66.89872754846994
tp362
a(F28.427992085386
F-65.64757406886748
tp363
a(F21.878549042845098
F-66.89225887915363
tp364
a(F15.692554098930133
F-64.40671849559456
tp365
a(F11.503483814403364
F-59.22057015643772
tp366
a(F9.301382664292635
F-52.92809886376379
tp367
a(F11.805315815796071
F-46.74952595270686
tp368
a(F13.635010473997623
F-40.33885813240973
tp369
a(F18.362002971307966
F-35.63779587215236
tp370
a(F22.271498417752486
F-30.237769039008473
tp371
a(F22.77720625131647
F-23.590310574939934
tp372
a(F19.84268666564465
F-17.604240140526976
tp373
a(F15.22738243346015
F-12.793480191327234
tp374
a(F10.975582098361603
F-7.6586346868451045
tp375
a(F4.621258525629002
F-5.6419501856255305
tp376
a(F-1.7158641249552806
F-3.57184850795458
tp377
a(F-8.098656179442093
F-1.6471641095077958
tp378
a(F-14.213038716168178
F1.0096705934843806
tp379
a(F-20.668090151222195
F2.6760305231668977
tp380
a(F-27.305645631656024
F3.298366195137652
tp381
a(F-33.652106224475546
F1.2570719027257713
tp382
a(F-39.35397303818533
F-2.1973686139367268
tp383
a(F-41.57224688093515
F-8.48415679257106
tp384
a(F-42.942750086572104
F-15.008431879336122
tp385
a(F-46.56453892861578
F-20.605492717677294
tp386
a(F-50.02538890936746
F-26.303471469408084
tp387
a(F-51.87609643019939
F-32.70810464522546
tp388
a(F-55.082570424196746
F-38.55301430836509
tp389
a(F-59.34783212046917
F-43.67668360943788
tp390
a(F-61.649842368115394
F-49.93329557312687
tp391
a(F-58.854075676072725
F-55.985413636095345
tp392
a(F-55.52704217281065
F-61.76254895670331
tp393
a(F-54.021278627999315
F-68.25694042870141
tp394
a(F-54.45637489177752
F-74.90939378710166
tp395
a(F-52.40604884532873
F-81.25294228519783
tp396
a(F-48.30363834915622
F-86.50790875182139
tp397
a(F-42.5723412142265
F-89.91329824431571
tp398
a(F-35.94492442078834
F-89.19094715897124
tp399
a(F-29.673125888414297
F-86.93064018562552
tp400
a(F-23.492792585692495
F-84.43105527774337
tp401
a(F-17.020726477394923
F-82.8320541100545
tp402
a(F-10.998028632714021
F-79.97346090427644
tp403
a(F-4.332214152207648
F-79.86686936654483
tp404
a(F2.118272368829542
F-81.55081357178501
tp405
a(F8.534354389844708
F-83.36143113053407
tp406
a(F14.959020544540198
F-85.14134945595092
tp407
a(F21.506078013001236
F-86.39852205711314
tp408
a(F27.83867268923798
F-88.4824340300483
tp409
a(F33.750753430461344
F-91.5633017249843
tp410
a(F39.10435456750521
F-95.53613438064538
tp411
a(F45.49145324365745
F-97.44647857621295
tp412
a(F51.93582084801028
F-95.73926721717966
tp413
a(F55.542343321319656
F-90.13235718633746
tp414
a(F61.09763750600316
F-86.44682452930319
tp415
a(F65.03468335169288
F-81.06685106715844
tp416
a(F70.2268147752654
F-76.88519879505411
tp417
a(F70.94295511537325
F-70.25710800978912
tp418
a(F72.71098060567378
F-63.82915885705837
tp419
a(F75.8347728469697
F-57.9396455938367
tp420
a(F74.63986662073526
F-51.38093813314366
tp421
a(F76.7772720092022
F-45.06619802370155
tp422
a(F81.57358366040212
F-40.43588064915708
tp423
a(F87.28881726573576
F-37.00360017097503
tp424
a(F93.93102468403632
F-37.57414820288607
tp425
a(F99.95749053186117
F-40.42478915352245
tp426
a(F106.28263915547866
F-38.31838479215349
tp427
a(F112.90525900495385
F-39.083466992823304
tp428
a(F118.25226842553715
F-35.10176701660237
tp429
a(F121.49102671005292
F-29.274684623249335
tp430
a(F126.95356625044674
F-25.453021868102233
tp431
a(F133.59429103179113
F-24.86546861699807
tp432
a(F140.21800144989382
F-24.109886231309844
tp433
a(F145.602063519826
F-28.04133889814459
tp434
a(F151.85172651317345
F-30.362148436652244
tp435
a(F156.9918156962998
F-34.60760808596608
tp436
a(F158.84121874950299
F-41.01261806185582
tp437
a(F157.98095366604468
F-47.623547529837374
tp438
a(F155.24527791966582
F-53.70306417634134
tp439
a(F153.7973649974322
F-60.21059770403625
tp440
a(F149.1830466839208
F-65.02230332117844
tp441
a(F143.31965156910437
F-68.194848383426
tp442
a(F139.70103077872773
F-73.79395795726883
tp443
a(F133.40762710275607
F-75.99339302466932
tp444
a(F126.99238579880749
F-74.17979895306546
tp445
a(F121.58573401136942
F-70.2794706471613
tp446
a(F117.48754489850744
F-65.02121138770444
tp447
a(F110.95734115786766
F-63.67924136189209
tp448
a(F104.39521342050372
F-62.503263469683546
tp449
a(F97.73308416620415
F-62.74918671675541
tp450
a(F91.86197370123963
F-59.59094252850324
tp451
a(F85.72810288950178
F-56.97941552129944
tp452
a(F79.0621933788256
F-56.878942440719335
tp453
a(F72.3955925327733
F-56.90856682019575
tp454
a(F66.16996591508175
F-59.293104020898404
tp455
a(F59.503301537827
F-59.287579033384546
tp456
a(F53.12389641852919
F-57.351698156801135
tp457
a(F46.533981237588556
F-58.360391545523676
tp458
a(F39.98854000150531
F-57.094831009861544
tp459
a(F33.333256345921896
F-56.70541618198671
tp460
a(F27.112861707477446
F-54.307263770971936
tp461
a(F23.154886285255728
F-48.942669191552795
tp462
a(F20.0098408460765
F-43.064477834515976
tp463
a(F14.53376804451931
F-39.262232298455736
tp464
a(F11.722957422020034
F-33.217086469868164
tp465
a(F6.426208079453609
F-29.16876696092787
tp466
a(F4.703891501432551
F-22.72841991674475
tp467
a(F4.054153559558626
F-16.093490749727675
tp468
a(F5.339295023417344
F-9.551865885650287
tp469
a(F7.676652055520102
F-3.308372748877873
tp470
a(F13.521651129949973
F-0.10206174332048601
tp471
a(F19.517517770976312
F2.812389777544456
tp472
a(F26.11948214555037
F1.8858311764298832
tp473
a(F31.93325549079615
F-1.376757356400169
tp474
a(F38.59830462210927
F-1.2299087213140905
tp475
a(F44.696608522859286
F1.4636268694181955
tp476
a(F51.20574233933466
F0.02292516411584189
tp477
a(F56.2579000505841
F-4.326804356797767
tp478
a(F62.75693642488837
F-5.812392001440244
tp479
a(F69.24440302723241
F-7.3477165690529915
tp480
a(F75.90157617280447
F-6.9920620255438015
tp481
a(F82.54027576846201
F-6.382052088689698
tp482
a(F88.62573802965056
F-3.65962789101324
tp483
a(F94.70817623010099
F-0.9304540266092483
tp484
a(F97.88975874466274
F4.928042124066229
tp485
a(F102.61092045614646
F9.634960068800831
tp486
a(F103.18359702399522
F16.27698430792262
tp487
a(F106.42333006547652
F22.103524813606825
tp488
a(F107.31727536760533
F28.709984246710633
tp489
a(F104.32498059398955
F34.667384387060125
tp490
a(F98.24271539994483
F37.39694379358649
tp491
a(F92.29053170949095
F40.399601576208276
tp492
a(F89.72440334669645
F46.552603255885124
tp493
a(F88.41995635442008
F53.09040582928741
tp494
a(F88.16081250767738
F59.75203392691789
tp495
a(F91.15918363659327
F65.70637814082828
tp496
a(F91.16641622644734
F72.37304088421709
tp497
a(F89.4727910114148
F78.82099234770148
tp498
a(F90.09637756115906
F85.45843042721849
tp499
a(F91.38592391852039
F91.99918838304139
tp500
a(F95.37612929322415
F97.33985365172558
tp501
a(F101.26981703989766
F100.45576269872213
tp502
a(F103.46981534630277
F106.74896950417983
tp503
a(F108.87023076849596
F110.65792815223206
tp504
a(F115.4427749366379
F111.7742200505578
tp505
a(F120.76620608427902
F115.78738903040015
tp506
a(F122.0713395169189
F122.32505460516383
tp507
a(F127.26664418382832
F126.50276376957842
tp508
a(F132.60577135380493
F130.49502697573882
tp509
a(F136.7043324439482
F135.75299630189585
tp510
a(F136.9832229856369
F142.4138269190337
tp511
a(F141.66663077968803
F147.158311704452
tp512
a(F146.90856871846208
F151.277356629005
tp513
a(F153.41949914665236
F152.7099170653254
tp514
a(F158.74789288513284
F156.71649473363118
tp515
a(F160.7315213203358
F163.08121489051936
tp516
a(F161.56431284894566
F169.6956614066173
tp517
a(F162.81636995808893
F176.24369908518088
tp518
a(F163.33667733172055
F182.89003075621483
tp519
a(F159.27822054686547
F188.17901676204886
tp520
a(F157.90943491795858
F194.70365241061518
tp521
a(F152.47076137906836
F198.55920354914514
tp522
a(F146.29038779201878
F201.05868884995095
tp523
a(F142.1908277212186
F206.31587932304066
tp524
a(F137.71536291407213
F211.25699854892844
tp525
a(F131.27867037620572
F212.9929229762637
tp526
a(F124.67736832897225
F212.061657318336
tp527
a(F118.44589982413979
F214.4308860362367
tp528
a(F112.77548117012995
F217.93670929657108
tp529
a(F107.44753296712162
F221.94387941905214
tp530
a(F100.88709230014777
F223.12923282608324
tp531
a(F95.74159924065732
F227.36814136710888
tp532
a(F89.08190499606314
F227.06331844644237
tp533
a(F83.40266495471172
F223.57180344616594
tp534
a(F78.82679000801745
F218.72352406924674
tp535
a(F75.45596877966379
F212.97182791150988
tp536
a(F76.38526070489836
F206.37024772475624
tp537
a(F72.96544460863768
F200.64754711121714
tp538
a(F70.39537995121914
F194.4961885538631
tp539
a(F67.19123202383862
F188.65000342987776
tp540
a(F60.88326756014897
F186.49268361833543
tp541
a.