(lp0
(I0
I0
tp1
a(F4.686133484305388
F-4.74179263693767
tp2
a(F10.215012455163219
F-8.466835156164867
tp3
a(F14.475053129972913
F-13.594846261204658
tp4
a(F18.73077009195802
F-18.726446166099493
tp5
a(F19.44680031390644
F-25.354548848293014
tp6
a(F18.240011289708722
F-31.91108030139536
tp7
a(F17.351405342915154
F-38.51826002619228
tp8
a(F12.728996277613966
F-43.322193714063694
tp9
a(F8.023717059811048
F-48.04498864153582
tp10
a(F1.366658899185345
F-48.4027889915792
tp11
a(F-5.2986621446333295
F-48.2688493511721
tp12
a(F-11.45533140937111
F-50.82616591528332
tp13
a(F-17.62370278541141
F-53.35512598054555
tp14
a(F-23.517722633087374
F-56.47040678324155
tp15
a(F-29.61096511675759
F-59.17537267575126
tp16
a(F-36.245053928858724
F-58.51710975138212
tp17
a(F-42.29126286768148
F-61.32563283523673
tp18
a(F-47.709124803884215
F-65.2103743304575
tp19
a(F-53.50142493600083
F-68.51093543789459
tp20
a(F-56.423999030623364
F-74.50284707825493
tp21
a(F-58.77748278967619
F-80.74027913322107
tp22
a(F-62.17564294356467
F-86.47586559085285
tp23
a(F-61.182684034184554
F-93.06816997162343
tp24
a(F-63.355227746934105
F-99.37090733412211
tp25
a(F-68.9062432751167
F-103.0628812032496
tp26
a(F-71.51853498776177
F-109.19642638140638
tp27
a(F-74.03879747101355
F-115.3683565057644
tp28
a(F-78.19787305704878
F-120.57859015830726
tp29
a(F-82.83320537298256
F-125.37005535856746
tp30
a(F-88.87602835560779
F-128.1858562828341
tp31
a(F-92.63376090030138
F-133.69256951006818
tp32
a(F-92.75635113261646
F-140.3581089540581
tp33
a(F-93.25093238838132
F-147.0064045120106
tp34
a(F-92.28054230790036
F-153.60206881033176
tp35
a(F-94.88865847926446
F-159.73739068298957
tp36
a(F-94.13204367282505
F-166.36098324889525
tp37
a(F-94.87091805088261
F-172.9865782484326
tp38
a(F-91.6117599052742
F-178.80227533703334
tp39
a(F-91.24107181706869
F-185.4586283013605
tp40
a(F-88.08763565420134
F-191.33232260828225
tp41
a(F-85.55990376069829
F-197.5011973775584
tp42
a(F-82.75292907182333
F-203.54812531994864
tp43
a(F-82.78243949795868
F-210.21472667140154
tp44
a(F-87.36011190550381
F-215.06130894901165
tp45
a(F-93.78495042091497
F-216.84060501637475
tp46
a(F-99.43464842405419
F-220.37972311524757
tp47
a(F-104.28241973065678
F-224.95613631810906
tp48
a(F-105.62577860503286
F-231.48605449363617
tp49
a(F-111.0561396954234
F-235.3533045337056
tp50
a(F-112.47831835301194
F-241.86651052694305
tp51
a(F-109.52368175924674
F-247.8426771112367
tp52
a(F-103.35897411095955
F-250.38055497583022
tp53
a(F-96.71184345913993
F-249.87055640516118
tp54
a(F-91.3445786876555
F-245.91620268840458
tp55
a(F-85.06149680971073
F-243.68745268908063
tp56
a(F-80.123694406314
F-239.20832868215095
tp57
a(F-73.92793506268454
F-236.7472292123463
tp58
a(F-67.78119084780154
F-234.166148043292
tp59
a(F-61.182607170827545
F-233.21581236448327
tp60
a(F-56.528075443221695
F-228.44299570750232
tp61
a(F-55.360071499062734
F-221.8794439837118
tp62
a(F-52.49766097147589
F-215.85855946264644
tp63
a(F-47.39603685745976
F-211.56695418679294
tp64
a(F-41.73000375932199
F-208.05404750211545
tp65
a(F-39.14764037215402
F-201.9078418611481
tp66
a(F-33.92956483580246
F-197.75860914396125
tp67
a(F-30.446364910276607
F-192.07426549466794
tp68
a(F-31.794959691977148
F-185.5454266576913
tp69
a(F-32.61749384219509
F-178.92969676476417
tp70
a(F-31.081863497170623
F-172.4423025353463
tp71
a(F-33.22906987965963
F-166.13088833602117
tp72
a(F-38.738107130238085
F-162.37656376079016
tp73
a(F-40.254019114364326
F-155.8845336237046
tp74
a(F-37.376810646924184
F-149.87070656605363
tp75
a(F-39.21625071265764
F-143.46282823629275
tp76
a(F-37.36974774536024
F-137.05698159153093
tp77
a(F-38.769898823982594
F-130.53900480410087
tp78
a(F-39.504304707470965
F-123.91291301159285
tp79
a(F-37.979375644158345
F-117.42299500006844
tp80
a(F-39.0113672948922
F-110.83668816867498
tp81
a(F-37.39994041197749
F-104.36770464377216
tp82
a(F-39.027722809398995
F-97.90281725797114
tp83
a(F-36.12942154742255
F-91.89912720607221
tp84
a(F-36.193577034824834
F-85.23276924104508
tp85
a(F-33.8592272433784
F-78.98815111856405
tp86
a(F-32.53528560412984
F-72.45426843058225
tp87
a(F-35.95954513390618
F-66.73422550091989
tp88
a(F-40.732634390949364
F-62.07997331729862
tp89
a(F-43.888220505008384
F-56.207433771139534
tp90
a(F-45.28307474299555
F-49.688321400638955
tp91
a(F-50.072464690021555
F-45.05084489075012
tp92
a(F-56.73890595566549
F-45.10566547232471
tp93
a(F-61.84682076033894
F-40.8215493683142
tp94
a(F-64.29847460965593
F-34.62204633600801
tp95
a(F-62.62657440030826
F-28.168427650771978
tp96
a(F-65.91774753667836
F-22.370788145690604
tp97
a(F-72.10366357920633
F-19.885051401938448
tp98
a(F-77.88184635319644
F-16.559837382539346
tp99
a(F-84.3683148907181
F-15.020301622582434
tp100
a(F-88.92017931362452
F-10.14947266644742
tp101
a(F-88.96302348291294
F-3.4829436729154457
tp102
a(F-89.25583434766865
F3.177289524347654
tp103
a(F-85.7769077568132
F8.864249540022405
tp104
a(F-86.80905316673335
F15.450532277441534
tp105
a(F-91.84066555400021
F19.824011582153876
tp106
a(F-97.88306288286113
F22.64072579637919
tp107
a(F-104.53658955055492
F23.059088470063184
tp108
a(F-109.67605517519743
F27.305302965064875
tp109
a(F-114.89730114359347
F31.450545416593204
tp110
a(F-118.66544897947239
F36.95013688609395
tp111
a(F-117.90578043371657
F43.57337990934425
tp112
a(F-118.8895456123791
F50.167062531194915
tp113
a(F-124.19186454144761
F54.20808448348447
tp114
a(F-130.8096349668104
F55.01403674115119
tp115
a(F-137.4215012212243
F54.1610015260592
tp116
a(F-143.14307610506415
F57.5827007081992
tp117
a(F-148.52201587877087
F61.52115870026671
tp118
a(F-150.72696187880555
F67.81263369277646
tp119
a(F-152.29384817800647
F74.29254972385439
tp120
a(F-155.58615602081184
F80.08954493798444
tp121
a(F-161.98910367592282
F81.94607551148799
tp122
a(F-168.30602942739893
F79.81513827759713
tp123
a(F-174.97248403314316
F79.86831189883831
tp124
a(F-181.0428843229375
F77.11246633601931
tp125
a(F-184.60555006387267
F71.47758769821252
tp126
a(F-188.25095338099246
F65.89587836325279
tp127
a(F-194.1529312866322
F62.79570074805317
tp128
a(F-200.68079781805972
F64.14899413542824
tp129
a(F-204.6849910310165
F69.47917998188382
tp130
a(F-205.8044733042623
F76.05118149469047
tp131
a(F-208.4250434881673
F82.18119424799471
tp132
a(F-213.15817730230594
F86.87607323918304
tp133
a(F-219.80141400031619
F87.4345091071702
tp134
a(F-226.31005808081443
F88.87742167480548
tp135
a(F-232.7484953620336
F90.60686372941488
tp136
a(F-238.64991366315647
F93.70810646090439
tp137
a(F-244.61913346674356
F96.67675251271116
tp138
a(F-251.0686317932924
F94.989027481704
tp139
a(F-257.72512584842934
F94.62088167041333
tp140
a(F-263.61148683131773
F91.49115343563425
tp141
a(F-270.2781362897517
F91.5063008052365
tp142
a(F-276.0987076624494
F94.75674590395404
tp143
a(F-282.7625244800682
F94.95165579509654
tp144
a(F-289.39177246430745
F94.24630793205033
tp145
a(F-296.05334399701576
F94.50690179048657
tp146
a(F-302.1129751568357
F91.72745676469748
tp147
a(F-308.7273965761032
F92.56044760064947
tp148
a(F-315.2282177456773
F91.08268964832364
tp149
a(F-321.73569591140466
F89.63452792840907
tp150
a(F-327.5725484205492
F92.85564531697747
tp151
a(F-332.68430790379523
F97.13517326172659
tp152
a(F-334.60613030618106
F103.51882763035687
tp153
a(F-340.3984166803496
F106.81941288210632
tp154
a(F-346.90310635233396
F108.28004860521611
tp155
a(F-353.4230546240966
F109.67099036459484
tp156
a(F-359.8766188688743
F111.34310070275191
tp157
a(F-364.6850214857704
F115.96086084358545
tp158
a(F-370.92472410801827
F118.30831811270819
tp159
a(F-377.329420699444
F120.15880616082539
tp160
a(F-383.8262054531049
F118.66340243305022
tp161
a(F-389.59061785340333
F115.31437360013018
tp162
a(F-393.8414800459393
F110.17875143095607
tp163
a(F-399.5516326966769
F106.73802459644584
tp164
a(F-405.942323559729
F104.83973201168784
tp165
a(F-409.3356175362664
F99.10126527977772
tp166
a(F-409.90042226023974
F92.45856702769507
tp167
a(F-410.6114482430546
F85.82992565134904
tp168
a(F-406.93160405146324
F80.27086177601396
tp169
a(F-400.41251425067503
F78.87590205842213
tp170
a(F-395.05351508267205
F74.91035387919294
tp171
a(F-392.2546402177919
F68.85967260059408
tp172
a(F-391.64389168632783
F62.22104091358516
tp173
a(F-395.42573807198556
F56.73086037377302
tp174
a(F-399.34490835689104
F51.33785112824428
tp175
a(F-400.0568558754318
F44.7093086658859
tp176
a(F-401.62374141290326
F38.229392450616814
tp177
a(F-404.2252840667128
F32.09128034143746
tp178
a(F-402.05623358956643
F25.787339948949942
tp179
a(F-397.2315758134479
F21.186565906706257
tp180
a(F-390.5983950845664
F20.51921452816614
tp181
a(F-383.93738386385616
F20.7937577160558
tp182
a(F-378.2663746477391
F17.288889827652625
tp183
a(F-374.24892125200313
F11.968691273318981
tp184
a(F-371.46837219564014
F5.909566634429016
tp185
a(F-373.2186268233331
F-0.5232440407489642
tp186
a(F-376.004685549337
F-6.579837243177379
tp187
a(F-381.9476820629597
F-9.600637945559582
tp188
a(F-385.44267940907264
F-15.277735619116736
tp189
a(F-390.7856344059725
F-19.26487448621777
tp190
a(F-393.1797704191968
F-25.4868160798545
tp191
a(F-392.1471064442275
F-32.07301753131687
tp192
a(F-390.43436991243163
F-38.515918897712
tp193
a(F-391.46612774214725
F-45.10226236167324
tp194
a(F-396.27237911668595
F-49.72226151418282
tp195
a(F-402.74685327254133
F-51.31148423287427
tp196
a(F-409.3601627160181
F-52.153257747107844
tp197
a(F-415.9766049078821
F-51.33647309607297
tp198
a(F-422.44732386203833
F-52.940917130861365
tp199
a(F-427.0662727464564
F-57.74817785268392
tp200
a(F-431.33132571843026
F-62.87202090167567
tp201
a(F-430.7798041512685
F-69.51583519810207
tp202
a(F-426.9680924719037
F-74.98532315565701
tp203
a(F-420.440899225866
F-76.34186020761119
tp204
a(F-414.03488326492106
F-78.1877756857853
tp205
a(F-407.78223091033976
F-75.8750320819258
tp206
a(F-401.5444940535029
F-78.22770786692116
tp207
a(F-394.99902090390805
F-79.49310333568867
tp208
a(F-388.3647085991078
F-78.83709671466966
tp209
a(F-381.8996043870936
F-77.21017570483541
tp210
a(F-375.2535567943719
F-76.6862521992329
tp211
a(F-369.70542187123067
F-80.38255350176024
tp212
a(F-363.34032029152837
F-82.36495767965027
tp213
a(F-359.77895030331354
F-88.00065535176569
tp214
a(F-354.7147354919659
F-92.33634131698173
tp215
a(F-351.5531831666927
F-98.20567103501632
tp216
a(F-351.86241646334446
F-104.86516194744246
tp217
a(F-352.1863462086746
F-111.52395417760964
tp218
a(F-350.12826762277285
F-117.86499170933085
tp219
a(F-351.98584796412155
F-124.26763489163294
tp220
a(F-355.92965246827555
F-129.64265586623938
tp221
a(F-358.2771302326191
F-135.88235077788025
tp222
a(F-364.0129645665065
F-139.28009251889625
tp223
a(F-369.991997226967
F-142.2289249810059
tp224
a(F-374.797112434612
F-146.85010581340177
tp225
a(F-381.4637708369444
F-146.86060300617333
tp226
a(F-387.91516826026464
F-148.54105405598744
tp227
a(F-394.53476132009274
F-147.75021136194528
tp228
a(F-400.69890931297766
F-150.2894482485428
tp229
a(F-407.0075619902169
F-152.44475468671027
tp230
a(F-410.5596027682077
F-158.0863369785797
tp231
a(F-412.0406603053697
F-164.5864072102049
tp232
a(F-414.51570038490865
F-170.77661084571804
tp233
a(F-413.70505534984073
F-177.3938080674702
tp234
a(F-411.0815408585599
F-183.52256129781676
tp235
a(F-411.7918815929136
F-190.15127614200506
tp236
a(F-416.1194792698044
F-195.22240449686004
tp237
a(F-420.22540600433825
F-200.47462403673885
tp238
a(F-425.6646688603332
F-204.3293437448159
tp239
a(F-428.29733293375483
F-210.454172258412
tp240
a(F-432.2787512568584
F-215.80139140306088
tp241
a(F-438.7379530180385
F-217.45159049796186
tp242
a(F-444.799961130073
F-220.22584753257001
tp243
a(F-450.5946351054836
F-223.52223919060214
tp244
a(F-457.0480706215598
F-225.19484628262643
tp245
a(F-462.8153103545987
F-228.5390039203735
tp246
a(F-469.43959587027217
F-227.78848020237177
tp247
a(F-476.05585347161997
F-226.97020164524594
tp248
a(F-480.3426762488611
F-221.86455820675837
tp249
a(F-481.22134567698754
F-215.25604971538755
tp250
a(F-481.17603493251124
F-208.58953703026654
tp251
a(F-478.1049060790282
F-202.67239143380297
tp252
a(F-478.04330824911233
F-196.00600934515893
tp253
a(F-482.13109800841397
F-190.73966152829448
tp254
a(F-488.5946518678581
F-189.1065920409457
tp255
a(F-494.9939459174501
F-190.97567740852537
tp256
a(F-499.975251247645
F-195.4063705429927
tp257
a(F-506.28464183938394
F-197.5595158714183
tp258
a(F-512.9495194846868
F-197.71395167551435
tp259
a(F-518.4218543798346
F-193.90632836959344
tp260
a(F-524.7426174161614
F-191.7868003365044
tp261
a(F-530.4252457364815
F-188.30080265756945
tp262
a(F-535.4589426968477
F-183.9297227731878
tp263
a(F-538.3546931984542
F-177.92480200128
tp264
a(F-542.1109512384887
F-172.4170828743527
tp265
a(F-548.044491074925
F-169.37774915561292
tp266
a(F-554.7110476085917
F-169.3394290842411
tp267
a(F-560.586116504145
F-172.49030355285225
tp268
a(F-562.9641472914481
F-178.71841835743663
tp269
a(F-565.4754034160736
F-184.89401850001184
tp270
a(F-568.4650046670938
F-190.8527707858803
tp271
a(F-573.9437911613799
F-194.65110502531647
tp272
a(F-580.5337730504618
F-193.6428475452965
tp273
a(F-585.5273726683414
F-189.22601527535943
tp274
a(F-590.6165846532673
F-184.9196983087473
tp275
a(F-597.2491171814871
F-184.2459352149593
tp276
a(F-602.016264292504
F-179.5855969368546
tp277
a(F-603.6054323568994
F-173.1111093658147
tp278
a(F-607.2648643581813
F-167.53858732705717
tp279
a(F-613.5316015754505
F-165.2642854354569
tp280
a(F-618.7468675898637
F-161.11152191662376
tp281
a(F-625.2987916752013
F-159.87996386910123
tp282
a(F-629.3128561304874
F-154.55720791064758
tp283
a(F-631.6706336416436
F-148.32139764634906
tp284
a(F-637.4244699455487
F-144.95423085031607
tp285
a(F-639.5370721786785
F-138.63114961969603
tp286
a(F-636.663617340296
F-132.61552814421898
tp287
a(F-630.6399039372919
F-129.75907557452464
tp288
a(F-625.4218722443617
F-125.60978772044416
tp289
a(F-624.5631087697373
F-118.99866302497097
tp290
a(F-622.1042455691274
F-112.80201585047963
tp291
a(F-620.0021397485754
F-106.47543734676645
tp292
a(F-615.8955432521841
F-101.22374146255235
tp293
a(F-612.2013651441915
F-95.6741926024311
tp294
a(F-611.5391949995158
F-89.04049264358879
tp295
a(F-610.9443760623159
F-82.40041471660685
tp296
a(F-606.4824595619837
F-77.447057714683
tp297
a(F-600.6562014998378
F-74.20681676103082
tp298
a(F-594.4556005879142
F-71.75794094231394
tp299
a(F-588.0440845378834
F-73.5846610589824
tp300
a(F-583.73013779087
F-78.66740715812777
tp301
a(F-578.8622147734221
F-83.22237916030804
tp302
a(F-572.2668642305428
F-84.19489942281464
tp303
a(F-568.1504681374522
F-89.4389176959744
tp304
a(F-563.8018237830622
F-94.49200949441588
tp305
a(F-562.48354429305
F-101.02703693358228
tp306
a(F-560.7925357241469
F-107.47567512038891
tp307
a(F-555.4018341446941
F-111.39801892553015
tp308
a(F-551.585918387364
F-116.86457463981719
tp309
a(F-549.2376443556838
F-123.10396992434441
tp310
a(F-546.916095266022
F-129.35335823591024
tp311
a(F-541.182847300057
F-132.75546232091452
tp312
a(F-536.8927045898483
F-137.85831642136537
tp313
a(F-530.5986359051632
F-140.0558477264688
tp314
a(F-524.2435707499577
F-142.0701941012361
tp315
a(F-517.5823999143373
F-141.79955126810552
tp316
a(F-512.8739049320627
F-137.0799623616075
tp317
a(F-512.7823170563357
F-130.41392485005207
tp318
a(F-509.3192879836635
F-124.71727021015408
tp319
a(F-505.94998794658176
F-118.96468281798305
tp320
a(F-504.7810768431693
F-112.40129259061095
tp321
a(F-506.08909767783143
F-105.86420409950621
tp322
a(F-505.2441610025942
F-99.25129804699922
tp323
a(F-507.80654181950933
F-93.09673478113301
tp324
a(F-512.7569778343016
F-88.63157770574442
tp325
a(F-518.124355052001
F-84.67737661736183
tp326
a(F-524.782972486268
F-84.34987347459926
tp327
a(F-531.4022328096141
F-83.55625063204677
tp328
a(F-537.271643593206
F-80.3948488072388
tp329
a(F-543.8379924398386
F-81.54702382379284
tp330
a(F-549.9603838012569
F-84.18535065382645
tp331
a(F-556.110200579505
F-86.75910239757
tp332
a(F-562.4875097306151
F-84.81632798050262
tp333
a(F-568.3292987411173
F-81.60417206877915
tp334
a(F-572.3265865306523
F-76.26880565473793
tp335
a(F-574.0538481804309
F-69.82978308623821
tp336
a(F-577.3033222578413
F-64.00866956177552
tp337
a(F-582.5398361756006
F-59.88273131289718
tp338
a(F-589.2063233987099
F-59.83381762803983
tp339
a(F-594.4884966324619
F-55.76649782587552
tp340
a(F-601.1423411616141
F-55.35322137322591
tp341
a(F-606.5276463471793
F-59.282971047539704
tp342
a(F-610.8962710807075
F-64.31879892208524
tp343
a(F-614.7111422325261
F-69.78608367225756
tp344
a(F-613.776031989602
F-76.38684221033657
tp345
a(F-610.0714861706806
F-81.92947558446089
tp346
a(F-605.2524881140776
F-86.53617746052156
tp347
a(F-600.9397730813419
F-91.61996871222138
tp348
a(F-596.9325568927266
F-96.94788226840299
tp349
a(F-590.7536508775354
F-99.45099331265939
tp350
a(F-587.7218533357337
F-105.38838736308
tp351
a(F-588.0709167838328
F-112.04590936106436
tp352
a(F-585.1451625699865
F-118.03626884314932
tp353
a(F-582.3737319904963
F-124.09956967582376
tp354
a(F-579.0816864024803
F-129.89671382539163
tp355
a(F-575.3337149856201
F-135.410075295751
tp356
a(F-570.3539067890574
F-139.84245104357421
tp357
a(F-565.9746544947633
F-144.86903972650464
tp358
a(F-562.3945635588108
F-150.492863455495
tp359
a(F-556.5784428536679
F-153.7512655773414
tp360
a(F-549.9366522675447
F-154.32664567304343
tp361
a(F-544.0937769220268
F-151.11646621681624
tp362
a(F-538.8461186374659
F-147.00471148520538
tp363
a(F-532.196809963903
F-147.4854802530404
tp364
a(F-525.533698288495
F-147.70316636992888
tp365
a(F-519.2281626742471
F-149.86757507946032
tp366
a(F-514.5068199620077
F-154.57431146872503
tp367
a(F-514.3643405570922
F-161.2394554329331
tp368
a(F-512.0439067014798
F-167.4892579231061
tp369
a(F-510.8242443114191
F-174.0434068456372
tp370
a(F-514.255389936419
F-179.7593218331513
tp371
a(F-520.5013725872719
F-182.09001811745955
tp372
a(F-525.3592772889436
F-186.65567320232097
tp373
a(F-525.6965034442613
F-193.31380529507896
tp374
a(F-527.339404167799
F-199.77486725554988
tp375
a(F-525.1964185936042
F-206.08771584182514
tp376
a(F-526.501836624634
F-212.62532459493255
tp377
a(F-526.5976341343877
F-219.29130293884947
tp378
a(F-522.4071372661695
F-224.47629864202003
tp379
a(F-521.1638514967613
F-231.0260074095937
tp380
a(F-522.6243418605229
F-237.53072972048474
tp381
a(F-519.2036912265868
F-243.25293154189902
tp382
a(F-512.9779686467936
F-245.6372181865576
tp383
a(F-506.5543284423187
F-247.42083556926576
tp384
a(F-500.0969953738033
F-245.76333923843984
tp385
a(F-493.48404732705256
F-244.91873129659928
tp386
a(F-486.92613306060844
F-246.11798311269666
tp387
a(F-480.3522168289569
F-247.226166230991
tp388
a(F-476.08139933800726
F-252.34520543805348
tp389
a(F-472.0079852946938
F-257.6226804475804
tp390
a(F-467.4477551106418
F-262.48567799157587
tp391
a(F-461.59610162389595
F-265.6798282565914
tp392
a(F-455.04529552599905
F-264.4423372819975
tp393
a(F-449.1919754024563
F-267.6334323880345
tp394
a(F-443.6630500263691
F-271.35840602956586
tp395
a(F-438.2617608478116
F-275.2661572568118
tp396
a(F-432.96633019091905
F-279.3162015284818
tp397
a(F-426.3023318632111
F-279.127599479844
tp398
a(F-420.12670404784427
F-276.61641140833046
tp399
a(F-416.0186015180683
F-271.36589352441723
tp400
a(F-410.38058033322767
F-267.8082030426956
tp401
a(F-403.77952895526096
F-268.74124385096087
tp402
a(F-397.1444644417273
F-268.0928895144358
tp403
a(F-392.13242150748033
F-263.6969971056399
tp404
a(F-385.4657825933141
F-263.7162333362751
tp405
a(F-379.0354736206143
F-265.4756568100474
tp406
a(F-373.71678872177444
F-269.49511391160934
tp407
a(F-368.08541376352844
F-273.0633152125569
tp408
a(F-361.42014563303235
F-273.19986261471956
tp409
a(F-354.7569203513473
F-273.4140431226032
tp410
a(F-348.7322018311631
F-270.5597111172131
tp411
a(F-344.4736520969275
F-265.4304617953838
tp412
a(F-337.9310376246593
F-264.1503679270632
tp413
a(F-331.3361146292438
F-263.1749525647771
tp414
a(F-326.7867447320714
F-258.3017936320984
tp415
a(F-320.33831825440706
F-256.6099779191432
tp416
a(F-314.51016010136897
F-259.8467999698004
tp417
a(F-310.11913583297786
F-264.86310840517837
tp418
a(F-309.1283135492044
F-271.45573425884413
tp419
a(F-304.5863193291507
F-276.33576837239735
tp420
a(F-299.2755054488539
F-280.3656195325882
tp421
a(F-294.68794187199205
F-285.2028403124054
tp422
a(F-293.6674195459778
F-291.79093401442196
tp423
a(F-290.88971912775435
F-297.85136509076017
tp424
a(F-289.7520890489083
F-304.42024948981526
tp425
a(F-285.9027339897434
F-309.86331021636664
tp426
a(F-284.9372851251924
F-316.45969960256735
tp427
a(F-281.3207945103374
F-322.06018530267505
tp428
a(F-282.1688632384456
F-328.67269041623445
tp429
a(F-284.6598428085206
F-334.8564971100044
tp430
a(F-288.3854094958584
F-340.38502289023216
tp431
a(F-293.17764457886057
F-345.01955925902763
tp432
a(F-294.2869434939549
F-351.59328730036117
tp433
a(F-297.438628350216
F-357.46792150269744
tp434
a(F-302.374060362531
F-361.9496572486178
tp435
a(F-305.83034928913906
F-367.65040380501296
tp436
a(F-305.83666322960715
F-374.31706748174065
tp437
a(F-308.0373910600447
F-380.6100192105228
tp438
a(F-308.64909306543
F-387.24856310968113
tp439
a(F-307.01827923610233
F-393.7126864608029
tp440
a(F-304.8879030026799
F-400.02980143114445
tp441
a(F-305.87760968765934
F-406.6225948544326
tp442
a(F-304.14867449510103
F-413.0611682635332
tp443
a(F-303.4431423887178
F-419.69039664180673
tp444
a(F-301.14913308740796
F-425.9499466072554
tp445
a(F-295.31053295372664
F-429.1678951654864
tp446
a(F-288.7495203288672
F-430.3500786456958
tp447
a(F-283.4764109075574
F-434.4291424445764
tp448
a(F-278.5200799733395
F-438.88775524621764
tp449
a(F-277.8989304640596
F-445.5254218340756
tp450
a(F-281.71990875740784
F-450.9884401688614
tp451
a(F-286.1497607327318
F-455.97049355287515
tp452
a(F-292.40708874582657
F-458.27055672178676
tp453
a(F-298.4705874841689
F-461.0415542848613
tp454
a(F-301.7990815621006
F-466.81784821935065
tp455
a(F-306.616766604452
F-471.4259232271113
tp456
a(F-312.26452247745925
F-474.9681397709375
tp457
a(F-317.3570078247934
F-479.2705852885044
tp458
a(F-323.71202217972115
F-481.2850919261471
tp459
a(F-326.9993301502063
F-487.08492388506016
tp460
a(F-333.32604445715685
F-489.18662094283786
tp461
a(F-336.7576411701415
F-494.9022651273439
tp462
a(F-336.04740016500324
F-501.53099065787126
tp463
a(F-331.1691046267685
F-506.074852130901
tp464
a(F-326.3805875872043
F-510.7132299730186
tp465
a(F-322.14488021530735
F-505.5651014291589
tp466
a(F-318.8176685640212
F-499.7880687070783
tp467
a(F-312.5480883149208
F-497.521615984312
tp468
a(F-306.16546123531367
F-499.4468474008203
tp469
a(F-299.67496616026546
F-497.9243763419101
tp470
a(F-293.9312607879058
F-494.5399571834767
tp471
a(F-287.3684974383148
F-493.3675316371369
tp472
a(F-281.4169811428874
F-490.3635512394468
tp473
a(F-279.0961618980646
F-484.11389185054367
tp474
a(F-280.2681384468488
F-477.5510483042183
tp475
a(F-277.20119522112054
F-471.6317321532931
tp476
a(F-273.2731074177567
F-466.24521466483094
tp477
a(F-268.5895844288512
F-461.50084359409476
tp478
a(F-266.85926674290033
F-455.06264158187656
tp479
a(F-269.24158366892533
F-448.8361650093342
tp480
a(F-273.92289071285114
F-444.0896074351616
tp481
a(F-279.7305505552468
F-440.8161487750486
tp482
a(F-283.19055196027756
F-435.1176547001522
tp483
a(F-289.55482069597133
F-433.1325784033022
tp484
a(F-296.04693856065524
F-434.648114636949
tp485
a(F-301.34238895223626
F-438.6981331053944
tp486
a(F-308.0082951838247
F-438.59744270806306
tp487
a(F-313.84576773739866
F-441.8174362842547
tp488
a(F-318.51330311195306
F-446.57753691047344
tp489
a(F-319.7423179111243
F-453.12993853643184
tp490
a(F-316.78406547421787
F-459.1043160742161
tp491
a(F-312.8248090072632
F-464.4679652679388
tp492
a(F-306.67722013811107
F-467.0470340030293
tp493
a(F-300.1171180309054
F-465.8598083347254
tp494
a(F-293.91366229531593
F-468.301443315845
tp495
a(F-287.2606727842401
F-468.7282629615503
tp496
a(F-280.8491836863611
F-466.90144824948374
tp497
a(F-274.50307655205586
F-464.8590553675031
tp498
a(F-267.8420628331977
F-465.1335379382211
tp499
a(F-262.60630688100565
F-469.26043799195753
tp500
a(F-258.44892737760597
F-474.472025092751
tp501
a(F-252.52729695343265
F-477.53449755204747
tp502
a(F-245.91032010749296
F-476.7220556373591
tp503
a(F-240.90302457475062
F-472.32075629600286
tp504
a(F-236.65866083275182
F-467.1797621440853
tp505
a(F-230.0677681782278
F-466.1774755278993
tp506
a(F-224.77156779127273
F-462.1284378761033
tp507
a(F-218.10491592588858
F-462.1143897369218
tp508
a(F-211.60654003753478
F-463.60286387445547
tp509
a(F-205.24988363459016
F-461.59354463169
tp510
a(F-201.71281064305148
F-455.94256603528993
tp511
a(F-196.76985141012344
F-451.46913352031265
tp512
a(F-193.8125288653381
F-445.49429563041565
tp513
a(F-192.08891879943386
F-439.0542946377792
tp514
a(F-187.1850983620095
F-434.5379919949148
tp515
a(F-180.99523663426078
F-432.06209695760083
tp516
a(F-174.74147515893046
F-434.37183976885035
tp517
a(F-168.07999898537585
F-434.1088195536413
tp518
a(F-162.57895596916734
F-430.34279111797224
tp519
a(F-159.14201917822234
F-424.6303564409284
tp520
a(F-160.10613525558387
F-418.03377212525277
tp521
a(F-158.22994008030258
F-411.63655897352055
tp522
a(F-157.2858502281525
F-405.03707878220916
tp523
a(F-155.22671197166704
F-398.6963852803024
tp524
a(F-151.53164263119763
F-393.1474297917832
tp525
a(F-152.42220199210607
F-386.54051307752513
tp526
a(F-150.70268222091738
F-380.0994187449652
tp527
a(F-150.31007026594241
F-373.44432293068456
tp528
a(F-148.55259697121477
F-367.0134806792556
tp529
a(F-148.0945058964557
F-360.36257119169903
tp530
a(F-145.52651158619526
F-354.2103480433636
tp531
a(F-141.484850471903
F-348.90851629559353
tp532
a(F-136.26984957827605
F-344.75541984548374
tp533
a(F-134.18677679188346
F-338.4225490737851
tp534
a(F-133.47170763317484
F-331.7943426389561
tp535
a(F-131.3156111374538
F-325.4859599345235
tp536
a(F-130.94375403836747
F-318.8296721746454
tp537
a(F-128.6607714692337
F-312.5660921253864
tp538
a(F-123.35729222558068
F-308.5265931024151
tp539
a(F-117.8459675053847
F-304.77562732371206
tp540
a(F-111.1978993798663
F-304.2779983023412
tp541
a.