(lp0
(I0
I0
tp1
a(F143.6907110081982
F-139.1149868632365
tp2
a(F104.73092904644562
F57.05365331529126
tp3
a(F284.00197842872853
F-31.61365099342835
tp4
a(F155.42628010910315
F-184.80728598398753
tp5
a(F109.60055646664837
F9.871945195523153
tp6
a(F-36.452515806495526
F146.50466484779315
tp7
a(F102.0423089243369
F290.7932074378963
tp8
a(F293.3123116558102
F232.3484809426668
tp9
a(F93.31327776011057
F232.97012455984694
tp10
a(F293.19515388174494
F226.09730868164883
tp11
a(F492.95507121215473
F216.30060371784313
tp12
a(F451.9028009732699
F412.04204314300307
tp13
a(F340.5924626261139
F245.87944633782055
tp14
a(F150.36626473537152
F184.12190723503474
tp15
a(F-38.131124358677965
F117.27331484352273
tp16
a(F123.52808872223991
F235.028564518679
tp17
a(F250.8489244834539
F389.26670759964964
tp18
a(F395.6145491905946
F251.27064278926704
tp19
a(F574.166395059073
F341.3774590517403
tp20
a(F375.1541666363692
F321.52467742725355
tp21
a(F572.7995845434547
F290.9258411694227
tp22
a(F441.1414712405451
F140.3730557368103
tp23
a(F592.7469889285414
F270.8175535378085
tp24
a(F592.4375374879727
F470.81731413718006
tp25
a.