(lp0
(I0
I0
tp1
a(F-5.788265553054143
F3.307631529020616
tp2
a(F-9.7294771840049
F8.684554006098272
tp3
a(F-13.732655474875653
F14.015502140899958
tp4
a(F-20.233629861895956
F15.492585910951764
tp5
a(F-26.37314801340395
F12.894363189215168
tp6
a(F-31.40168481908822
F8.517347991809169
tp7
a(F-36.03256730686333
F3.721581960311984
tp8
a(F-37.33477767674257
F-2.8166664746301615
tp9
a(F-39.0291517701207
F-9.264421190508665
tp10
a(F-38.133146228354065
F-15.870601517563621
tp11
a(F-41.39795436464624
F-21.683128702673798
tp12
a(F-45.65089921450055
F-26.817026300848323
tp13
a(F-52.23526482747811
F-27.861331772960327
tp14
a(F-58.87000058945693
F-27.209621858071955
tp15
a(F-64.2664778239625
F-23.295228175532152
tp16
a(F-65.99992763976503
F-16.85786876498666
tp17
a(F-68.14735278603281
F-10.546528995522394
tp18
a(F-70.50739371036255
F-4.31157500371674
tp19
a(F-73.97919979172224
F1.3797347732922676
tp20
a(F-74.25115683163004
F8.04085208294003
tp21
a(F-78.79740783689792
F12.916920811080079
tp22
a(F-85.42637884024765
F13.624867052819404
tp23
a(F-91.39733795826534
F16.590013196840953
tp24
a(F-95.18873663149917
F22.073601487827545
tp25
a(F-94.26271121546216
F28.675640670784425
tp26
a(F-97.78495056949178
F34.33587691827175
tp27
a(F-104.27792536354038
F35.847737615655646
tp28
a(F-109.29673988662904
F40.23589727857572
tp29
a(F-111.13449918207077
F46.64425785024005
tp30
a(F-108.55407423692401
F52.79127757909312
tp31
a(F-109.01773090043699
F59.441801388750854
tp32
a(F-111.09979005728157
F65.77500548398133
tp33
a(F-110.92656751244421
F72.43942131692607
tp34
a(F-106.81737936162749
F77.68908960984058
tp35
a(F-106.52032312753283
F84.34913480775252
tp36
a(F-102.200562808957
F89.42694095160067
tp37
a(F-102.04042874432159
F96.0916841218802
tp38
a(F-100.02040777891055
F102.4449478299081
tp39
a(F-96.41257640948825
F108.0510157258809
tp40
a(F-92.01128038729712
F113.05831417609225
tp41
a(F-90.77744213464173
F119.60980924292461
tp42
a(F-88.2020231146911
F125.75892798597397
tp43
a(F-83.83239469862282
F130.7938849818115
tp44
a(F-77.53576835117607
F132.98407700195125
tp45
a(F-74.10435876293913
F138.6998335294986
tp46
a(F-74.56570449310372
F145.35051804777964
tp47
a(F-77.02753262196161
F151.5459879015041
tp48
a(F-77.76070525797557
F158.17221626538085
tp49
a(F-78.20820947142339
F164.82384647333672
tp50
a(F-76.20099997387756
F171.18116937510962
tp51
a(F-76.7419152622791
F177.8258556051146
tp52
a(F-81.16000171739375
F182.81834561708027
tp53
a(F-81.06374946287401
F189.48431741029574
tp54
a(F-77.95759266908829
F195.3831507201006
tp55
a(F-71.90826595135427
F198.18495205255687
tp56
a(F-66.02671280598122
F201.32370611151032
tp57
a(F-62.43900902371992
F206.9426763032085
tp58
a(F-62.5780743510121
F213.60789237466406
tp59
a(F-60.066393334196434
F219.7833197213513
tp60
a(F-61.283547143485976
F226.33793496932554
tp61
a(F-66.29831043796
F230.73072378109882
tp62
a(F-72.9617337686977
F230.52279600559768
tp63
a(F-78.54371687957058
F234.16778009258275
tp64
a(F-81.02267037835911
F240.35641758360518
tp65
a(F-86.45906338302666
F244.21518364845625
tp66
a(F-92.4522329523005
F247.13517730570527
tp67
a(F-95.15784713217288
F253.2281319546517
tp68
a(F-98.53771938205833
F258.9745141224942
tp69
a(F-99.23989453814045
F265.604098913009
tp70
a(F-101.3706243447695
F271.9210946337284
tp71
a(F-100.61695528388987
F278.54502302941
tp72
a(F-97.82572598288111
F284.5992350700999
tp73
a(F-96.86612408803697
F291.1964775734384
tp74
a(F-97.59792152553732
F297.82285795452975
tp75
a(F-96.92069719535085
F304.4550379619668
tp76
a(F-97.71072481463436
F311.0747283478696
tp77
a(F-98.13451247675333
F317.72791168082233
tp78
a(F-96.54029614790353
F324.2011580643051
tp79
a(F-96.6248495092018
F330.8672885140891
tp80
a(F-101.28758900303279
F335.63208702579067
tp81
a(F-107.67787832853392
F337.53173088210445
tp82
a(F-114.21438565832473
F338.84265283707947
tp83
a(F-120.09204810567233
F335.69661904840456
tp84
a(F-123.75313026921091
F330.1251810081618
tp85
a(F-122.57113240600131
F323.56413494097006
tp86
a(F-125.4953370871391
F317.5730188990914
tp87
a(F-125.72257757827789
F310.9102262260727
tp88
a(F-122.1292960278408
F305.2948213302764
tp89
a(F-121.53098766131778
F298.6550569110374
tp90
a(F-123.24362027131056
F292.2121279196831
tp91
a(F-124.70502570085397
F285.7076111340221
tp92
a(F-124.51445371286313
F279.04366885022057
tp93
a(F-127.5200058728213
F273.09294614972316
tp94
a(F-133.75930337689837
F270.74441233049424
tp95
a(F-140.3737064354672
F269.911275713102
tp96
a(F-146.18570853573226
F273.1770185123682
tp97
a(F-152.79403010574956
F272.29694438384905
tp98
a(F-159.46023640130826
F272.2185985511712
tp99
a(F-166.08032033203966
F273.00532162475963
tp100
a(F-172.48097601058748
F271.1409044694218
tp101
a(F-178.85419443392274
F269.1847522839044
tp102
a(F-185.49835457412357
F269.7320917359916
tp103
a(F-190.8087794284731
F265.7017279421448
tp104
a(F-196.98145365231332
F263.18328847080886
tp105
a(F-203.61330896233193
F263.86368511352737
tp106
a(F-210.0804469828554
F262.24486756113174
tp107
a(F-216.02548461385157
F265.26164929179834
tp108
a(F-222.68534634381194
F264.96050782628146
tp109
a(F-228.78188906233035
F262.26298834985045
tp110
a(F-235.43690614762437
F262.65693255768866
tp111
a(F-242.0627541497026
F263.39353468760686
tp112
a(F-247.273288861341
F259.234836277857
tp113
a(F-253.67409958363913
F257.3709514794433
tp114
a(F-257.7672838328379
F252.10879534848752
tp115
a(F-259.8908058275695
F245.7893730028664
tp116
a(F-259.80995489264416
F239.12319661975394
tp117
a(F-255.83383970683792
F233.77203296372122
tp118
a(F-249.2718585740103
F232.59523729035266
tp119
a(F-242.85081581261716
F234.3881829952766
tp120
a(F-236.78730137275272
F237.15914620001246
tp121
a(F-230.23748725708643
F238.4018768605592
tp122
a(F-223.75450287313527
F239.95601904256503
tp123
a(F-217.82251727019207
F242.99838510385996
tp124
a(F-211.3405918530891
F244.55693806464092
tp125
a(F-204.77807037198139
F245.73071668705842
tp126
a(F-198.24413224202777
F247.0543846810746
tp127
a(F-191.57820747958672
F247.15384073126654
tp128
a(F-185.1267295875199
F245.47369863828231
tp129
a(F-179.84309331610788
F241.40827957060137
tp130
a(F-176.73258104684504
F235.51174178413635
tp131
a(F-170.9291409381637
F232.2308078699294
tp132
a(F-166.47309863297608
F227.272165775684
tp133
a(F-165.66282524393512
F220.65492303573131
tp134
a(F-163.5109055427893
F214.3451143187998
tp135
a(F-163.13553501675543
F207.6890237685872
tp136
a(F-162.62679472799383
F201.0417966953607
tp137
a(F-159.44149430974826
F195.18532116053865
tp138
a(F-154.20284738564956
F191.06209149811676
tp139
a(F-151.01307114011468
F185.20805255497112
tp140
a(F-152.0644367347746
F178.62481058533263
tp141
a(F-153.4826143079647
F172.11073223031224
tp142
a(F-150.1906735802363
F166.31352853460103
tp143
a(F-150.99384629587934
F159.69542019208419
tp144
a(F-147.62449877606616
F153.94286061089136
tp145
a(F-145.46983926797483
F147.63398695162095
tp146
a(F-145.2485143606661
F140.97099515139718
tp147
a(F-143.44395718094174
F134.5532059814766
tp148
a(F-146.5048485368664
F128.6307581301511
tp149
a(F-150.8321456593806
F123.55937330370331
tp150
a(F-155.86771910641514
F119.19045530218793
tp151
a(F-157.41309642369083
F112.70537601264225
tp152
a(F-154.6097494519172
F106.65676541182721
tp153
a(F-148.9260497149018
F103.17251488353627
tp154
a(F-143.37208307648538
F99.48498196520158
tp155
a(F-136.70922637823918
F99.71033738022464
tp156
a(F-130.17021714458264
F98.4119527351371
tp157
a(F-124.91615721156528
F94.3083812827671
tp158
a(F-118.92247348506719
F91.38944314858946
tp159
a(F-115.56450586569973
F85.63023331461709
tp160
a(F-109.75652548922487
F82.35734340034752
tp161
a(F-103.09493460470824
F82.61744209655626
tp162
a(F-96.51576968364449
F81.54085796798634
tp163
a(F-90.11388065164012
F83.40103571926349
tp164
a(F-86.25840991466457
F88.83976625503833
tp165
a(F-86.74025460328136
F95.48899704818247
tp166
a(F-90.4848929875108
F101.00462283460054
tp167
a(F-94.2056738835573
F106.5363706567685
tp168
a(F-98.16477728315687
F111.90013283603443
tp169
a(F-102.41658271559973
F117.03497411976403
tp170
a(F-102.64459270693098
F123.69774050380434
tp171
a(F-106.60907148293037
F129.05753084290296
tp172
a(F-112.75834193269401
F131.63258761511366
tp173
a(F-119.1898545182635
F129.87756900948415
tp174
a(F-124.58632097005926
F125.96316046168445
tp175
a(F-130.72204259480054
F123.35598486573265
tp176
a(F-137.1739290693626
F121.67741244733433
tp177
a(F-143.77695203777307
F122.59639673614892
tp178
a(F-150.4417214302047
F122.75543569411492
tp179
a(F-157.05480018018574
F123.59901965021757
tp180
a(F-162.37605796769526
F127.61506994911994
tp181
a(F-164.50225191607575
F133.93359380666092
tp182
a(F-169.9632477112277
F137.7574621843352
tp183
a(F-176.5801761045618
F136.9446257420336
tp184
a(F-181.9855370082509
F133.04250863137256
tp185
a(F-188.41391067570206
F131.27602725981356
tp186
a(F-195.0157384257016
F130.34849569497044
tp187
a(F-201.59989679167825
F129.30288436365066
tp188
a(F-207.885171551874
F127.0803260104706
tp189
a(F-214.26207077764352
F125.13620649027006
tp190
a(F-220.85036272353602
F126.1554482084765
tp191
a(F-227.12341901981804
F123.8986342710592
tp192
a(F-231.9813664617212
F119.33302466267706
tp193
a(F-233.918888382285
F112.954117761665
tp194
a(F-232.81464129849348
F106.3795392335476
tp195
a(F-233.93690882372033
F99.80801277112917
tp196
a(F-234.3304387104792
F93.15297117301185
tp197
a(F-236.99098179482144
F87.0402013474088
tp198
a(F-242.1797698155398
F82.85440114667131
tp199
a(F-246.60401620637498
F77.86736913177242
tp200
a(F-248.31744976895226
F71.42465309961035
tp201
a(F-252.63221546959625
F66.34260219539946
tp202
a(F-258.4548808455154
F63.095909668455064
tp203
a(F-261.17104486598794
F57.0076506842844
tp204
a(F-264.1327983413446
F51.035007986478234
tp205
a(F-263.6118676906428
F44.38872513802799
tp206
a(F-267.6853809112562
F39.11132667989236
tp207
a(F-270.9993847938754
F33.32670718415807
tp208
a(F-269.49122616919897
F26.83287149119058
tp209
a(F-266.08865071027617
F21.09990326427873
tp210
a(F-260.968058049998
F16.8309484446596
tp211
a(F-257.1492018907112
F11.366446447302312
tp212
a(F-251.7156726717953
F7.503648928452602
tp213
a(F-249.37394878867997
F1.2617923376863738
tp214
a(F-243.40092302431717
F-1.699188523903692
tp215
a(F-236.77512249106212
F-2.4362175178798564
tp216
a(F-230.46153918357015
F-0.29539751988769414
tp217
a(F-226.69022280252776
F5.202021619901963
tp218
a(F-223.31649856359246
F10.952015463730401
tp219
a(F-221.8822554430207
F17.46257543315984
tp220
a(F-219.31439622280777
F23.6148549675773
tp221
a(F-217.7468246903478
F30.094605266397895
tp222
a(F-214.53370639843854
F35.93586500096222
tp223
a(F-213.24952407473643
F42.47767822085282
tp224
a(F-208.988589410272
F47.60494652177192
tp225
a(F-202.78450978602163
F50.04499579594775
tp226
a(F-196.12537808953968
F49.72812122556708
tp227
a(F-189.48253282406685
F49.16504820771786
tp228
a(F-185.15167350607712
F44.09670508474109
tp229
a(F-183.91964368286295
F37.54486969615299
tp230
a(F-180.61897959638185
F31.75262824463715
tp231
a(F-176.25451600230477
F26.713193556061423
tp232
a(F-173.09467889731218
F20.842940246845842
tp233
a(F-167.15660133119417
F17.812481657257415
tp234
a(F-161.47119051385425
F14.331023876022865
tp235
a(F-156.27638141280187
F10.152698511948442
tp236
a(F-149.61234936707856
F9.96529163369351
tp237
a(F-143.22454391030806
F11.873271164741357
tp238
a(F-139.1418603896891
F17.143578529109288
tp239
a(F-132.950657715311
F19.616118496272158
tp240
a(F-128.11880553201217
F24.209336205372715
tp241
a(F-123.15478225521116
F28.6593830985888
tp242
a(F-116.49004449757007
F28.499023919501056
tp243
a(F-110.9360956574619
F24.81146419443821
tp244
a(F-106.35953122325725
F19.963835658337544
tp245
a(F-101.34251982032113
F15.573614590184665
tp246
a(F-96.21632356502766
F11.311390241718271
tp247
a(F-90.18528384891906
F8.470438924436515
tp248
a(F-84.11873876920353
F5.706117083509911
tp249
a(F-78.86840730349573
F1.5977763059400862
tp250
a(F-74.52765878137527
F-3.4620998498717848
tp251
a(F-68.74186094683746
F-6.774046084686299
tp252
a(F-62.24676177106464
F-5.271338148552456
tp253
a(F-55.69651181174664
F-4.030906806277121
tp254
a(F-49.086835937928406
F-4.900751210472256
tp255
a(F-42.48315138600832
F-3.9865330837779225
tp256
a(F-35.91172902220823
F-2.8636561711145756
tp257
a(F-30.753161699027373
F1.3593318251571604
tp258
a(F-26.26693037495149
F6.290677782532771
tp259
a(F-23.840845937655125
F12.5002316109131
tp260
a(F-22.411792723488468
F19.011932721646332
tp261
a(F-23.05697997655612
F25.647305947993395
tp262
a(F-27.867220792639976
F30.263151237398727
tp263
a(F-33.41661873932877
F33.95755604382299
tp264
a(F-38.782124444145964
F37.91429623949146
tp265
a(F-44.90374723868536
F40.554405859530014
tp266
a(F-51.52374454891762
F41.341857481512015
tp267
a(F-57.91836291158462
F43.226877492091845
tp268
a(F-64.36709553212852
F41.536229085953664
tp269
a(F-68.37219343519274
F36.206722989577095
tp270
a(F-68.5244369204277
F29.541794905520376
tp271
a(F-67.10955968470411
F23.02699891084214
tp272
a(F-65.60281733934983
F16.53283445733769
tp273
a(F-62.339558079899156
F10.71943756308955
tp274
a(F-56.2674424596115
F7.967373548880743
tp275
a(F-50.34953461920526
F4.897713757160702
tp276
a(F-43.90696710311258
F3.183721853728283
tp277
a(F-39.11108630542166
F-1.4470417786312852
tp278
a(F-33.22209037014736
F-4.57180918097778
tp279
a(F-30.228441942504695
F-10.528529212682898
tp280
a(F-28.21613670398336
F-16.884240980177083
tp281
a(F-25.513855658125262
F-22.978674636690258
tp282
a(F-19.401007158879796
F-25.63903695594621
tp283
a(F-12.737446838244912
F-25.842527244915406
tp284
a(F-6.103901631173175
F-25.178808607102642
tp285
a(F-0.24645071823490472
F-28.36231504607258
tp286
a(F3.1131003265248016
F-34.12060135556592
tp287
a(F9.41574854859107
F-36.29340365520787
tp288
a(F15.46113060268324
F-39.103706177091375
tp289
a(F20.981959298722366
F-42.84066951025848
tp290
a(F25.163095923105203
F-48.03321618531966
tp291
a(F31.670984039646918
F-49.4795345137037
tp292
a(F37.507559767145096
F-46.257915631585035
tp293
a(F44.17369665468513
F-46.173871351455475
tp294
a(F50.69114914126496
F-44.77128177156446
tp295
a(F57.35106213347729
F-44.47127613727433
tp296
a(F63.31348977701705
F-47.453540552110375
tp297
a(F69.76833311199798
F-45.78637470394268
tp298
a(F76.4349575213101
F-45.810111376168
tp299
a(F82.45851510278439
F-42.95333023174898
tp300
a(F88.78592515720644
F-45.05293172909156
tp301
a(F92.3561953372793
F-50.682995253220476
tp302
a(F94.07198685058061
F-57.12508372881033
tp303
a(F96.72156157788467
F-63.24261576459699
tp304
a(F94.97602514007248
F-69.6767083182299
tp305
a(F90.40971375187121
F-74.53399611600634
tp306
a(F87.73755439458263
F-80.64169689565325
tp307
a(F84.79402274310588
F-86.62334097242672
tp308
a(F84.28958705297818
F-93.27089609284278
tp309
a(F87.3868975540927
F-99.17437914135999
tp310
a(F89.58066214160877
F-105.46976168565425
tp311
a(F86.75545197526006
F-111.50819127954738
tp312
a(F87.1970226924868
F-118.16021801928109
tp313
a(F85.0636448834086
F-124.47631994754168
tp314
a(F84.54654678397219
F-131.12290207672686
tp315
a(F87.67280366873291
F-137.01110743446793
tp316
a(F86.14775029930367
F-143.50099623666145
tp317
a(F83.85510974661925
F-149.76104765343362
tp318
a(F85.75260481559131
F-156.15197535664473
tp319
a(F88.99989413958541
F-161.97430792106582
tp320
a(F89.68390307140493
F-168.6057916333006
tp321
a(F89.99611207045791
F-175.26514370278565
tp322
a(F90.67802094769348
F-181.8968436905408
tp323
a(F90.6841535758612
F-188.56350753652225
tp324
a(F95.09864428484431
F-193.5591772838881
tp325
a(F96.23873547235132
F-200.1276349817509
tp326
a(F101.32407587362317
F-204.43852322521496
tp327
a(F103.25941095154263
F-210.81809394593114
tp328
a(F108.84230675295902
F-214.46167994257945
tp329
a(F115.40031386930391
F-215.6604239129143
tp330
a(F120.96516454177308
F-219.33151114118385
tp331
a(F126.88929759974802
F-222.38913962676756
tp332
a(F133.25992045160137
F-220.42455088509965
tp333
a(F139.6921306072399
F-222.17701114374887
tp334
a(F146.28049835359303
F-221.15825951393015
tp335
a(F152.9221817041742
F-220.58164290381796
tp336
a(F158.71793770828072
F-223.87613175420245
tp337
a(F164.87051861991728
F-226.44326879187886
tp338
a(F169.69889310344777
F-231.04014210873632
tp339
a(F175.5728755864454
F-234.19304144646998
tp340
a(F182.23273172570885
F-234.49430652702145
tp341
a(F187.44044731092555
F-230.33207841843162
tp342
a(F189.48773674003803
F-223.98754924457728
tp343
a(F194.8382883920616
F-220.01061053955902
tp344
a(F201.45267882678374
F-219.17737370557927
tp345
a(F207.34937246495412
F-222.28759051184943
tp346
a(F210.11426022768728
F-228.3538776880333
tp347
a(F209.79437097598148
F-235.0128652470461
tp348
a(F209.2319535507879
F-241.65576605048153
tp349
a(F207.86680287177654
F-248.1811632083593
tp350
a(F207.64879109927742
F-254.8442642365215
tp351
a(F205.09215142557534
F-261.0012146198929
tp352
a(F202.39351173294898
F-267.09726155654175
tp353
a(F204.64211402014197
F-273.3732660337928
tp354
a(F210.1007194188529
F-277.2005459485114
tp355
a(F212.21107015031845
F-283.52437898193716
tp356
a(F213.97436980771798
F-289.9536261200288
tp357
a(F216.04029292544226
F-296.29211222604
tp358
a(F216.8117205523393
F-302.91399593544656
tp359
a(F216.46831527817358
F-309.57181218870255
tp360
a(F219.18110552571991
F-315.66157519864487
tp361
a(F218.86413229010412
F-322.32070219941215
tp362
a(F216.09188380552533
F-328.3836291150359
tp363
a(F217.57079407788518
F-334.88418823335434
tp364
a(F220.19607311267373
F-341.0121858209799
tp365
a(F218.45317248689824
F-347.4469928773815
tp366
a(F219.1104281300497
F-354.08118155905083
tp367
a(F218.15589608249172
F-360.67915950798556
tp368
a(F219.37724672743252
F-367.23299403798
tp369
a(F224.42841879943757
F-371.58386810458325
tp370
a(F229.93717044250852
F-375.3386117415587
tp371
a(F235.98879298458476
F-378.1354508596845
tp372
a(F241.66565968292346
F-381.63082336254274
tp373
a(F247.98293823657323
F-383.76071446775
tp374
a(F254.56867528717532
F-382.72509294191576
tp375
a(F260.4078489540986
F-385.9420006701471
tp376
a(F262.773679716366
F-392.174760030876
tp377
a(F268.63416109879626
F-395.3526842607205
tp378
a(F274.20709898086545
F-399.01148294431084
tp379
a(F278.27293780354125
F-404.29479621464293
tp380
a(F278.91451984678537
F-410.930519003174
tp381
a(F275.3584315526507
F-416.56955087830676
tp382
a(F268.94403682160856
F-418.3861368737453
tp383
a(F262.8308412923729
F-421.04570166253643
tp384
a(F258.77959493702826
F-426.34021272709674
tp385
a(F252.17693088883982
F-427.2617722266432
tp386
a(F245.71535354248223
F-428.90264475108955
tp387
a(F239.788311646739
F-431.9546307947255
tp388
a(F233.23624242226498
F-433.1854164471219
tp389
a(F227.17963261015726
F-430.39939382906493
tp390
a(F221.11439732717622
F-427.6321993280357
tp391
a(F218.73078087869027
F-421.40622012224395
tp392
a(F212.8977720224389
F-418.17814761262815
tp393
a(F206.4296528968956
F-416.5632546061954
tp394
a(F200.520825074911
F-419.6503565181162
tp395
a(F194.10181137393803
F-421.45055304937773
tp396
a(F188.12214553027118
F-418.50300477283866
tp397
a(F183.56422182209678
F-413.63784538028983
tp398
a(F178.36562318329558
F-409.46423583493237
tp399
a(F172.55373196765788
F-406.1982957035096
tp400
a(F167.90156253517233
F-401.42317643631935
tp401
a(F165.57163837656051
F-395.1769057201591
tp402
a(F161.112345139997
F-390.22118697563945
tp403
a(F157.0652270927922
F-384.92351956852207
tp404
a(F156.58748906032557
F-378.27399245625463
tp405
a(F154.06992128817234
F-372.10096265257965
tp406
a(F150.14262216225384
F-366.71387011392727
tp407
a(F150.44959355661524
F-360.05427455507476
tp408
a(F148.27618810163298
F-353.75183429968973
tp409
a(F149.39775357949185
F-347.180187982113
tp410
a(F150.64979861229037
F-340.6321479944305
tp411
a(F155.82665992956214
F-336.4316062024495
tp412
a(F162.39604492681713
F-335.2968704612808
tp413
a(F169.0539466266631
F-334.95512582030983
tp414
a(F175.71318288509923
F-334.64045631308954
tp415
a(F181.4234367864372
F-331.1998975173852
tp416
a(F187.8481440780314
F-329.4201276834513
tp417
a(F194.1493239986022
F-331.59718442433785
tp418
a(F197.69095340601567
F-337.2453085009662
tp419
a(F200.8712520664238
F-343.1045016941499
tp420
a(F202.2311589832452
F-349.6309936785184
tp421
a(F203.39349109546396
F-356.1955521941651
tp422
a(F199.88555967316975
F-361.86466690291155
tp423
a(F193.96575628647784
F-364.9306695622965
tp424
a(F187.61034099867385
F-362.9174281550153
tp425
a(F181.0086928771911
F-361.98861895794215
tp426
a(F174.89371563639398
F-359.3331533134689
tp427
a(F168.25711286584365
F-359.96556782181636
tp428
a(F161.92780659037987
F-357.8716894786886
tp429
a(F156.41258722750896
F-354.1264525270581
tp430
a(F153.70821889366184
F-348.0329448049551
tp431
a(F151.6613154081748
F-341.68829110553656
tp432
a(F147.20021345377512
F-336.73420049303303
tp433
a(F143.04606861341358
F-331.52003468345794
tp434
a(F136.4878799860141
F-330.32228413685306
tp435
a(F130.81994400274314
F-333.8321197646264
tp436
a(F124.46460773895568
F-335.8456106184999
tp437
a(F119.85543244929421
F-340.6622430098724
tp438
a(F113.43616899906549
F-342.4615487651575
tp439
a(F106.78220107670333
F-342.05026378777575
tp440
a(F100.4648911992818
F-339.920465591449
tp441
a(F95.03800419462206
F-336.04834189984257
tp442
a(F88.60522832684008
F-334.2979593475626
tp443
a(F82.41380044758246
F-331.82598336458943
tp444
a(F77.7161737442205
F-327.09557663785813
tp445
a(F72.17126402289608
F-323.39443889024506
tp446
a(F69.68539906948618
F-317.20857436878543
tp447
a(F67.92560260947198
F-310.7783674620237
tp448
a(F62.22253878750809
F-307.32590348870684
tp449
a(F56.68830259336072
F-303.60882477124153
tp450
a(F51.88655607646959
F-298.98414371932364
tp451
a(F47.23072596332703
F-294.21259361458834
tp452
a(F44.3573651735933
F-288.1969272162194
tp453
a(F40.26753921342558
F-282.9321605490268
tp454
a(F37.16620302439914
F-277.03079136153485
tp455
a(F31.77516235260448
F-273.1089136327549
tp456
a(F26.488409751743202
F-269.0475479287421
tp457
a(F23.93927982490472
F-262.88748453129716
tp458
a(F22.527193856647855
F-256.3720829578946
tp459
a(F20.234809509313106
F-250.11193771608595
tp460
a(F21.8518570295341
F-243.64435688846643
tp461
a(F27.141810077209673
F-239.5871606647385
tp462
a(F33.61954022482398
F-238.01126200710434
tp463
a(F38.731726813840346
F-233.73224427828788
tp464
a(F43.24773118463898
F-228.82814915610967
tp465
a(F44.60500215115239
F-222.30110848150804
tp466
a(F46.96851520597394
F-216.0674698583496
tp467
a(F44.52675126635113
F-209.86406488143552
tp468
a(F44.935825792668886
F-203.20996069857497
tp469
a(F48.38879901964745
F-197.5072051945915
tp470
a(F52.675410847920794
F-192.40138464563452
tp471
a(F59.15965754567093
F-190.85251757349408
tp472
a(F65.7815019081274
F-191.62428287709875
tp473
a(F71.58742043684802
F-188.34773675621122
tp474
a(F77.5923377108599
F-185.4519790010255
tp475
a(F80.47660082460303
F-179.44153220106585
tp476
a(F85.28545092620381
F-174.82423806436861
tp477
a(F86.06059583523441
F-168.20278846368083
tp478
a(F84.29375714155957
F-161.774512997043
tp479
a(F87.48958714524338
F-155.92377671585592
tp480
a(F91.49947117030867
F-150.59787073189688
tp481
a(F95.97149588750392
F-145.65363779106175
tp482
a(F99.39817705269377
F-139.93504525123365
tp483
a(F101.2304672690624
F-133.52511880801728
tp484
a(F105.14385578692247
F-128.1279126091839
tp485
a(F109.93680782979179
F-123.49411771091755
tp486
a(F113.85343225566366
F-118.09925927430326
tp487
a(F114.00910788895213
F-111.43441047319422
tp488
a(F111.5130083636426
F-105.2526686794767
tp489
a(F112.32364025801327
F-98.63546984792619
tp490
a(F114.13176918568189
F-92.21868605654188
tp491
a(F116.97948645147318
F-86.19083811398738
tp492
a(F123.22866471923089
F-83.86872368480238
tp493
a(F128.06697528827956
F-79.28230947739846
tp494
a(F133.18811080451397
F-75.01400589531728
tp495
a(F138.225306551691
F-70.64695844319749
tp496
a(F144.7176071630312
F-69.13220525655741
tp497
a(F149.66919065782508
F-64.66832069952311
tp498
a(F155.8616808717527
F-62.19900715222799
tp499
a(F162.50652238061983
F-61.66000273064998
tp500
a(F168.9817306613589
F-60.07377381731732
tp501
a(F173.54539009556834
F-55.213994294232386
tp502
a(F174.57614258106733
F-48.62749342062111
tp503
a(F177.9938466323885
F-42.9035312035876
tp504
a(F183.42442067547944
F-39.03658020739546
tp505
a(F186.29351573329816
F-33.018878154813876
tp506
a(F186.80260097514648
F-26.371677491303206
tp507
a(F185.48175028562017
F-19.837169254226577
tp508
a(F184.3810515110394
F-13.261995746851973
tp509
a(F179.94526199611863
F-8.285228138879575
tp510
a(F179.11354299960215
F-1.6706466740189247
tp511
a(F177.13339862252226
F4.695158278252501
tp512
a(F176.23661449771586
F11.301232958267832
tp513
a(F175.55237313314782
F17.932692691950795
tp514
a(F173.3498296820963
F24.225009180389247
tp515
a(F167.9622768879832
F28.15167689425154
tp516
a(F166.83021802446086
F34.72152370935804
tp517
a(F167.1868886189299
F41.37864249540095
tp518
a(F167.31590937820337
F48.0440605684194
tp519
a(F163.00704421429333
F53.13111526084083
tp520
a(F156.47008862934902
F54.43980014457326
tp521
a(F150.50395164469305
F57.41463693417442
tp522
a(F145.88082900556412
F62.21788390971275
tp523
a(F139.84415015510794
F65.04683299036083
tp524
a(F133.25000632893764
F64.06616401245616
tp525
a(F126.98470585087485
F61.787907142823016
tp526
a(F122.6594308283994
F56.71479760089566
tp527
a(F122.61852951246287
F50.04825640423309
tp528
a(F125.40369131794772
F43.991250694997476
tp529
a(F129.57563899338075
F38.79131828794704
tp530
a(F128.97842645751675
F32.15145521470138
tp531
a(F124.90114926741155
F26.876964228881768
tp532
a(F123.17505501784142
F20.43762861982664
tp533
a(F117.78274563425938
F16.51749546441246
tp534
a(F114.49767908686792
F10.716393653234347
tp535
a(F110.06268341053106
F5.738918611075134
tp536
a(F103.81817886989866
F3.404264999409002
tp537
a(F97.17041106833497
F3.9058900595262216
tp538
a(F90.51263993512657
F3.5616111286266317
tp539
a(F84.00730192147796
F2.1038656869864116
tp540
a(F78.58285925919338
F-1.7716815321855477
tp541
a.