(lp0
(I0
I0
tp1
a(F199.29379714336457
F-16.792332184049112
tp2
a(F75.06144736339328
F139.94414496197732
tp3
a(F-124.93374422953144
F138.5572997257215
tp4
a(F54.06248677836638
F49.33651019229896
tp5
a(F149.9696605026586
F-126.16794567198511
tp6
a(F-47.78374560425269
F-156.06092767637915
tp7
a(F151.88252043272203
F-144.5118062010447
tp8
a(F130.0366853300214
F-343.31512480681045
tp9
a(F274.9880319913259
F-205.51415564812012
tp10
a(F215.38358589136743
F-396.42594157323566
tp11
a(F158.9111389534037
F-204.56436976470786
tp12
a(F91.09135733255737
F-16.414224346478875
tp13
a(F-91.53305327343695
F65.12303493302593
tp14
a(F-270.1918026476494
F-24.771632717743813
tp15
a(F-470.09146961221666
F-18.437349218001966
tp16
a(F-275.33462917928637
F27.057409871173622
tp17
a(F-472.28686540204757
F-7.725008774654707
tp18
a(F-509.8127696434674
F188.72296528174473
tp19
a(F-581.8340065327378
F2.140700752289547
tp20
a(F-522.6832116552332
F193.19352974301498
tp21
a(F-331.2363692452498
F135.3307046197375
tp22
a(F-398.85746329343465
F-52.89094036225316
tp23
a(F-267.29333133572004
F-203.5258605574491
tp24
a(F-151.84511797861785
F-366.84061810450305
tp25
a.