(lp0
(I0
I0
tp1
a(F170.16736939033166
F105.08599523616084
tp2
a(F332.5509491242676
F221.84032291951684
tp3
a(F531.2960929847483
F199.47142057995543
tp4
a(F503.71807884681886
F397.56092847022245
tp5
a(F558.4149034566262
F205.18562501989916
tp6
a(F372.9715862398083
F130.28051104479982
tp7
a(F213.8611662196042
F251.45754781742534
tp8
a(F413.4838630990301
F263.736753434437
tp9
a(F499.43150400040815
F444.3274592403775
tp10
a(F388.4117627748242
F277.9705626048476
tp11
a(F548.2028237459072
F398.2486438737789
tp12
a(F448.62068733232366
F224.8029806033862
tp13
a(F599.3605829690664
F93.35913760028507
tp14
a(F484.459840914904
F257.0595330653017
tp15
a(F329.2909442008679
F130.8746944651403
tp16
a(F335.52885703410647
F330.7773919043818
tp17
a(F313.9771074881088
F131.941977323612
tp18
a(F338.803912508514
F-66.51111474723174
tp19
a(F193.37161558592004
F70.78217355128075
tp20
a(F127.70616537653058
F259.6949805517544
tp21
a(F322.5965688156705
F304.6141373484851
tp22
a(F502.79094658739905
F391.3896305447762
tp23
a(F471.11115244852675
F193.91459251890652
tp24
a(F595.1941372324242
F350.7693434419152
tp25
a.