(lp0
(I0
I0
tp1
a(F62.9112352756063
F-189.84777184917738
tp2
a(F130.31588317454924
F-1.548506206372707
tp3
a(F153.49415234221664
F197.1038731863523
tp4
a(F-18.682105930134213
F298.8650449923645
tp5
a(F134.99479003290952
F426.8627467184652
tp6
a(F319.3422827503983
F504.42563687075017
tp7
a(F485.391409384341
F392.94609819165055
tp8
a(F616.3295518040065
F241.76672506261752
tp9
a(F550.8448495242052
F430.74226254650927
tp10
a(F581.8701164447543
F233.16333448860965
tp11
a(F426.24237472255817
F107.54484060156527
tp12
a(F393.96909803499005
F304.92375439898103
tp13
a(F402.1703927082178
F105.09197823291959
tp14
a(F601.9975441619601
F96.77876333836292
tp15
a(F602.158206534173
F296.7786988073579
tp16
a(F429.70738591797846
F195.48351398201152
tp17
a(F624.6117591930661
F240.34201683537637
tp18
a(F443.39754579855855
F155.716909072905
tp19
a(F245.69970879183848
F185.97521773126098
tp20
a(F188.6988394652842
F-5.730027100530435
tp21
a(F388.5581060818036
F-13.231596770073473
tp22
a(F391.3220087047126
F-213.2124979638902
tp23
a(F302.2733148596955
F-34.130588982283626
tp24
a(F413.1752519508581
F132.30486502144663
tp25
a.