(lp0
(I0
I0
tp1
a(F-0.9831362169350488
F-6.5937764311049465
tp2
a(F-4.146100498215358
F-12.462345370786014
tp3
a(F-3.8285546429383723
F-19.121445090285704
tp4
a(F-1.6861138791544446
F-25.43447859392889
tp5
a(F1.4983242106039114
F-31.291423061562213
tp6
a(F5.654941313708318
F-36.5036182519426
tp7
a(F10.906999848249445
F-40.60975093296962
tp8
a(F13.408508360772451
F-46.78930590126785
tp9
a(F15.720220949815973
F-53.042339513051985
tp10
a(F17.51663476938921
F-59.462412864135345
tp11
a(F22.146389584455285
F-64.25926754161067
tp12
a(F23.572204748949773
F-70.77167842861266
tp13
a(F21.049724954911735
F-76.94270266556995
tp14
a(F17.50327867572265
F-82.587803482497
tp15
a(F11.194907534736373
F-84.74393381065806
tp16
a(F5.7522237276818515
F-88.59382178576473
tp17
a(F-0.9134065162803449
F-88.71137132945128
tp18
a(F-7.551047759661078
F-89.33279161284693
tp19
a(F-13.079239099603946
F-85.6067286835038
tp20
a(F-14.595460001059948
F-79.11477068745728
tp21
a(F-18.2070904610579
F-73.51114954886668
tp22
a(F-20.34612389378697
F-67.1969607317571
tp23
a(F-23.07932818854405
F-61.116332579373015
tp24
a(F-28.084704090584232
F-56.712850261511406
tp25
a(F-32.90872190693781
F-52.11140521110086
tp26
a(F-38.45929475801421
F-48.41876584753745
tp27
a(F-43.20447578004479
F-43.73606347469703
tp28
a(F-47.9488072443608
F-39.052500365146194
tp29
a(F-53.393450136269855
F-35.2053834935099
tp30
a(F-57.34272183891907
F-29.83437823721954
tp31
a(F-60.36701521420949
F-23.893158326745013
tp32
a(F-66.39196275047233
F-21.039309762135336
tp33
a(F-70.5220863588397
F-15.806096272886977
tp34
a(F-72.63843293253373
F-9.484267295094394
tp35
a(F-71.38712773431337
F-2.936085887607951
tp36
a(F-66.6670150715317
F1.7718840459294851
tp37
a(F-65.28826466417429
F8.294421263811515
tp38
a(F-60.092733053381856
F12.471848190246135
tp39
a(F-56.475715695835405
F18.071993713324275
tp40
a(F-50.85821203590816
F21.661993305963314
tp41
a(F-46.83355576296434
F26.976745071483357
tp42
a(F-40.29654902186634
F28.2851744013609
tp43
a(F-35.10574620720401
F32.46847579902974
tp44
a(F-33.943762559304425
F39.03309600483437
tp45
a(F-34.85660372340918
F45.63697103799182
tp46
a(F-33.256399101652306
F52.10873969987648
tp47
a(F-29.066383125601046
F57.294124021687125
tp48
a(F-25.657680369687608
F63.02345120437381
tp49
a(F-19.947778289861155
F66.46459384646786
tp50
a(F-13.306416973979479
F67.04490782730484
tp51
a(F-7.0314456092927475
F69.29639151962996
tp52
a(F-0.5471517888142534
F67.74772173747857
tp53
a(F6.0913568863297405
F68.35980589385119
tp54
a(F12.046312875343185
F65.36264997308942
tp55
a(F17.761609607202466
F61.930474611712455
tp56
a(F24.42286071142871
F62.19913456572325
tp57
a(F31.017449390965368
F63.17680761545481
tp58
a(F37.54825121016464
F61.83775121530287
tp59
a(F42.083280266647975
F56.95124367910728
tp60
a(F44.60200823659033
F50.7786871700201
tp61
a(F49.458062169207466
F46.21106364700968
tp62
a(F49.92658886804982
F39.5608811550087
tp63
a(F45.751717536990554
F34.36329577201172
tp64
a(F46.37577367310492
F27.725901826838474
tp65
a(F43.9030575362794
F21.53476951108822
tp66
a(F45.38923080191194
F15.03586702920995
tp67
a(F45.330794125444704
F8.369456480849767
tp68
a(F47.48348213419716
F2.0599098425073716
tp69
a(F50.53245659714693
F-3.8686818257326143
tp70
a(F54.49651876802802
F-9.228780290297792
tp71
a(F57.97125906247558
F-14.918299103922273
tp72
a(F62.0074839986253
F-20.224270523864874
tp73
a(F68.29022603801849
F-22.453978332275177
tp74
a(F71.73258453362236
F-28.16314748655571
tp75
a(F73.09720816264777
F-34.68865488411109
tp76
a(F76.93413877155913
F-40.14048099531856
tp77
a(F81.22772644857815
F-45.240436809263905
tp78
a(F86.79868913672709
F-48.90224226172814
tp79
a(F89.63155500275715
F-54.937084051661515
tp80
a(F87.41890744881644
F-61.22585461883
tp81
a(F83.55370461283468
F-66.65767305110137
tp82
a(F78.01618497303063
F-70.36985848332709
tp83
a(F72.43762933720973
F-74.02008607383365
tp84
a(F66.70474549159455
F-77.42280370201395
tp85
a(F63.52880225832025
F-83.28435887308106
tp86
a(F59.37043773441505
F-88.4951600524364
tp87
a(F52.830499300962344
F-89.78885620342884
tp88
a(F46.177921635200896
F-90.22204766855293
tp89
a(F40.10805379386143
F-87.46502956322294
tp90
a(F34.036236672126115
F-84.7123070409468
tp91
a(F31.40554705635008
F-78.58663021386127
tp92
a(F29.240079776195426
F-72.28145805895352
tp93
a(F28.58822109732981
F-65.64673691129163
tp94
a(F26.8804903625996
F-59.202506919888286
tp95
a(F24.420745098685465
F-53.006209825566835
tp96
a(F26.196609949988904
F-46.580422054845684
tp97
a(F26.395080953434775
F-39.91671034850397
tp98
a(F21.91062583064728
F-34.98374909828626
tp99
a(F19.410003474157044
F-28.803835484434877
tp100
a(F17.80285802019711
F-22.333786958012503
tp101
a(F16.76778546972002
F-15.747963603283551
tp102
a(F18.802269037978974
F-9.399316420227244
tp103
a(F24.609397443244568
F-6.1249150811727375
tp104
a(F30.603307710647318
F-3.206442166998554
tp105
a(F37.19107129756936
F-2.183791020581297
tp106
a(F41.862079102202365
F2.5729022145876446
tp107
a(F48.47391438750937
F3.4261774365492776
tp108
a(F55.122227212939755
F2.9318283497064854
tp109
a(F60.75007775777537
F6.505585852593032
tp110
a(F67.24956689047715
F7.989191412819805
tp111
a(F73.36376722728211
F5.331937438157506
tp112
a(F75.94482810273693
F-0.8148152981774128
tp113
a(F73.84461783637921
F-7.142023314477339
tp114
a(F69.60316918276934
F-12.28542275096246
tp115
a(F67.52922246559955
F-18.621288079296477
tp116
a(F61.68807409272391
F-21.834608811887097
tp117
a(F56.2711016123153
F-25.720590488496015
tp118
a(F51.90879837614791
F-30.76189537117946
tp119
a(F47.85889366992815
F-36.05743276742014
tp120
a(F42.71730219990736
F-40.301072902946935
tp121
a(F39.66775418722054
F-46.22936956917091
tp122
a(F34.89238806918518
F-50.88128561346539
tp123
a(F28.951043136439676
F-53.90533337012925
tp124
a(F23.42773960814454
F-57.63863788205524
tp125
a(F16.77611123255253
F-57.19110643348025
tp126
a(F10.11218079671372
F-57.00012059435706
tp127
a(F3.695159764193029
F-58.80740737642335
tp128
a(F-1.4381058311769443
F-63.06111502644296
tp129
a(F-8.00770051201523
F-64.19463616605428
tp130
a(F-12.598332740463245
F-69.02894482268543
tp131
a(F-19.067003128872038
F-70.6416282542887
tp132
a(F-25.059106321980888
F-67.71944691707174
tp133
a(F-31.512023698296023
F-66.04484195503004
tp134
a(F-35.80292972011988
F-60.94262969402793
tp135
a(F-38.44126837202405
F-54.820243427030974
tp136
a(F-41.68894252460126
F-48.99812550971546
tp137
a(F-44.408313046458005
F-42.91129805945033
tp138
a(F-46.23591247784105
F-36.50003260223731
tp139
a(F-51.473624799954706
F-32.375615785859125
tp140
a(F-58.14025660515448
F-32.397175432037095
tp141
a(F-63.61594625033507
F-28.594378125565655
tp142
a(F-70.28260498615572
F-28.60466134251248
tp143
a(F-75.11445921712131
F-24.01144578746345
tp144
a(F-81.15831191134707
F-21.197855722271925
tp145
a(F-87.75143133155244
F-20.21032306187262
tp146
a(F-91.98336396495502
F-15.059091109146479
tp147
a(F-98.50294404147053
F-13.666424576789797
tp148
a(F-104.10732763984872
F-17.276871768852573
tp149
a(F-106.86791230174161
F-23.345118366426384
tp150
a(F-110.45596861308744
F-28.963863453281263
tp151
a(F-116.9082296031828
F-30.640995696170272
tp152
a(F-123.09857449136716
F-28.16630892613769
tp153
a(F-128.5110212194195
F-24.274026194829474
tp154
a(F-134.93581373480316
F-22.494564034873754
tp155
a(F-138.69814135882163
F-16.99098926078447
tp156
a(F-140.5525814888493
F-10.587435852825159
tp157
a(F-145.71472298043005
F-6.368817635286989
tp158
a(F-150.09256055722588
F-1.3409967757456593
tp159
a(F-156.39710623370706
F0.8262937579869556
tp160
a(F-162.4284991230803
F3.6664952047971253
tp161
a(F-165.15333069740018
F9.750879917817322
tp162
a(F-168.2781723482986
F15.639836455375985
tp163
a(F-172.91459501462148
F20.430246594774474
tp164
a(F-174.29342270864166
F26.952767475127978
tp165
a(F-171.12089963564776
F32.81617448775858
tp166
a(F-172.71151110837476
F39.290307602490905
tp167
a(F-171.24943254585372
F45.794673115087875
tp168
a(F-174.62742763990715
F51.54215896448285
tp169
a(F-173.69820165473928
F58.143748433158805
tp170
a(F-172.3292619974463
F64.66835176662936
tp171
a(F-174.79153465626194
F70.86364496373419
tp172
a(F-180.00079889107587
F75.02393468637766
tp173
a(F-186.63411375459054
F75.689951477397
tp174
a(F-193.12830050671627
F74.1833052438839
tp175
a(F-196.9515296066039
F68.72186187292262
tp176
a(F-196.06335600831943
F62.11462401556083
tp177
a(F-195.98646494721092
F55.44840078128746
tp178
a(F-192.3795480619069
F49.84174446696312
tp179
a(F-188.94521601084767
F44.12774343375426
tp180
a(F-188.73053323217638
F37.4645343158452
tp181
a(F-190.56682725747729
F31.055753722230786
tp182
a(F-193.38602965094344
F25.014516902744308
tp183
a(F-195.92514286350567
F18.85031796547465
tp184
a(F-194.97110349250872
F12.252268759608407
tp185
a(F-193.68268770735108
F5.711288006770107
tp186
a(F-188.70301925274705
F1.2787552627662873
tp187
a(F-182.1670674194416
F-0.03493346640648132
tp188
a(F-177.03295900990398
F-4.287623824704355
tp189
a(F-172.5461490887681
F-9.218443348479383
tp190
a(F-166.76081292911672
F-12.531195974963133
tp191
a(F-161.91756900389305
F-17.11240026261813
tp192
a(F-155.43334084695385
F-18.661344952786663
tp193
a(F-149.7700198840193
F-22.17862232530515
tp194
a(F-147.76159330821912
F-28.535560828552136
tp195
a(F-146.3790903347317
F-35.05730369167875
tp196
a(F-142.10061386458426
F-40.16994327792373
tp197
a(F-135.48351133076127
F-40.981360865431995
tp198
a(F-130.7629502487532
F-45.68888118036165
tp199
a(F-124.78653983003511
F-48.643024533599956
tp200
a(F-118.16181074884548
F-47.89642621771326
tp201
a(F-112.44388840414331
F-44.46862685013062
tp202
a(F-105.78836095096167
F-44.853852452070555
tp203
a(F-99.16372796761543
F-44.10640193169778
tp204
a(F-94.69634670221771
F-39.157972981614954
tp205
a(F-88.50346372552339
F-36.689644623917346
tp206
a(F-81.86513853255644
F-36.07557371851245
tp207
a(F-76.0075261768078
F-39.258783094947695
tp208
a(F-69.34088574160405
F-39.27748475666302
tp209
a(F-63.26532539815113
F-42.0219356958322
tp210
a(F-56.82624249229195
F-43.74897239952919
tp211
a(F-50.44080501200334
F-41.83308288555144
tp212
a(F-44.33067632607009
F-44.499685946709974
tp213
a(F-41.53813842978053
F-50.55329450212807
tp214
a(F-39.593581422572065
F-56.93006033522567
tp215
a(F-39.39775450752727
F-63.593850267673155
tp216
a(F-42.53671911788603
F-69.47529104518334
tp217
a(F-44.527966386423685
F-75.83763171194944
tp218
a(F-47.42207348463641
F-81.84334470446908
tp219
a(F-46.486418285671135
F-88.44402601726503
tp220
a(F-43.44164635755057
F-94.37477709534726
tp221
a(F-42.87954899684318
F-101.01770498909488
tp222
a(F-47.024884493075476
F-106.23887708625094
tp223
a(F-53.61645305184666
F-107.23670892552224
tp224
a(F-59.28235623982299
F-103.72359271495873
tp225
a(F-62.41571280262618
F-97.83916231815883
tp226
a(F-61.53573455215348
F-91.23082798013237
tp227
a(F-65.19037603280375
F-85.65516298908828
tp228
a(F-69.9177107146816
F-80.95444482587541
tp229
a(F-73.14765588016265
F-75.1224727175376
tp230
a(F-78.90970465338883
F-71.76937886567376
tp231
a(F-84.16200035644128
F-67.66354955941404
tp232
a(F-90.82866174834156
F-67.65516324969194
tp233
a(F-96.13856782102529
F-71.68621050117893
tp234
a(F-100.14269828938522
F-77.0164434826532
tp235
a(F-105.89623481279905
F-80.38412249321634
tp236
a(F-110.5911338205695
F-85.11723645246985
tp237
a(F-110.88433013251925
F-91.77745269273589
tp238
a(F-113.69971875174286
F-97.82046778184419
tp239
a(F-116.03590715012525
F-104.06439829168396
tp240
a(F-121.92860217439018
F-107.18218433236217
tp241
a(F-128.36090095001242
F-108.93431928880047
tp242
a(F-134.916822557138
F-107.72422163750599
tp243
a(F-140.0780075441565
F-103.50443325724099
tp244
a(F-145.60587575723
F-99.77789096399701
tp245
a(F-146.93275563189408
F-93.24460432994705
tp246
a(F-150.86957318600074
F-87.86446381225403
tp247
a(F-154.90089855927545
F-82.5547688888864
tp248
a(F-161.3141495184225
F-80.73414905502658
tp249
a(F-167.68159371253324
F-78.75928225462461
tp250
a(F-173.86217250832684
F-81.25826008434437
tp251
a(F-180.3980803528127
F-82.57216765066424
tp252
a(F-186.65768844801994
F-80.2783169713783
tp253
a(F-193.20315915715156
F-79.01290887896525
tp254
a(F-199.64900688276057
F-80.71452327203596
tp255
a(F-204.83683663935616
F-84.90151107486342
tp256
a(F-208.84025519771484
F-90.23227877670841
tp257
a(F-213.84984254907033
F-94.6309693788744
tp258
a(F-216.41681304448932
F-100.78361977688117
tp259
a(F-218.44814583591227
F-107.13327579393707
tp260
a(F-221.3022971817497
F-113.15807990191426
tp261
a(F-227.53887818466518
F-115.51381796853337
tp262
a(F-232.88865820247543
F-119.49179461571
tp263
a(F-239.4833895164127
F-120.46850508530656
tp264
a(F-245.6437769515982
F-123.01685182247817
tp265
a(F-251.11455508472335
F-126.82671153939219
tp266
a(F-257.7334939245249
F-127.62301115600066
tp267
a(F-263.8222626504312
F-130.33803230635476
tp268
a(F-270.48255625160084
F-130.62946598776904
tp269
a(F-276.59056941665943
F-127.9580207572028
tp270
a(F-283.21054739090096
F-128.74563491718322
tp271
a(F-287.9908651026813
F-133.39246254674768
tp272
a(F-294.6495105786074
F-133.71939506329062
tp273
a(F-299.79224817392105
F-137.9616461720997
tp274
a(F-302.1682044968973
F-144.19055265684915
tp275
a(F-306.18737444356987
F-149.5094545533132
tp276
a(F-308.3758925518262
F-155.8066628978321
tp277
a(F-312.66273423948223
F-160.91229045861428
tp278
a(F-315.6937332591942
F-166.85009218879605
tp279
a(F-318.7051063447202
F-172.7978713192122
tp280
a(F-321.55870518704194
F-178.82293713557837
tp281
a(F-322.96909635945303
F-185.33870579209383
tp282
a(F-327.5994494077574
F-190.13498300390125
tp283
a(F-334.1675538931469
F-191.27710730250053
tp284
a(F-338.40606664148834
F-196.4229263944033
tp285
a(F-344.38943788708644
F-199.3629456089313
tp286
a(F-349.16573951620927
F-204.0139011228105
tp287
a(F-355.34916080896045
F-206.50583722969526
tp288
a(F-361.8354949714774
F-208.04593903691793
tp289
a(F-368.23148020970086
F-206.16556213935948
tp290
a(F-374.23282921392956
F-209.06870777364782
tp291
a(F-380.8801726299079
F-209.5759256306817
tp292
a(F-387.07051664995805
F-207.1012366890419
tp293
a(F-393.72102224924555
F-206.63731889644254
tp294
a(F-400.3563123186448
F-207.28336079862547
tp295
a(F-405.3530428221755
F-211.6966508094372
tp296
a(F-409.96505344622557
F-216.51056838747004
tp297
a(F-412.5017842924522
F-222.67574811382408
tp298
a(F-410.7790391325521
F-229.1159805287673
tp299
a(F-413.72141446143564
F-235.09819348622892
tp300
a(F-419.849214203249
F-237.72393429001684
tp301
a(F-425.7897784134055
F-240.7495154423663
tp302
a(F-432.45266212893137
F-240.97407064231675
tp303
a(F-438.48672720133453
F-243.80859055694927
tp304
a(F-445.03798096422696
F-245.04370940897618
tp305
a(F-451.6438988492508
F-245.94164779259
tp306
a(F-457.19206709689195
F-249.63789907467446
tp307
a(F-459.7494335664104
F-255.79454760979704
tp308
a(F-462.47665082785016
F-261.87786335479575
tp309
a(F-466.3120770567093
F-267.33074792054845
tp310
a(F-472.8217450280335
F-268.7690341742409
tp311
a(F-479.4606505018037
F-269.37679938778064
tp312
a(F-485.9366371664473
F-267.793751326665
tp313
a(F-492.5489669099904
F-268.64318631952807
tp314
a(F-498.3903972505656
F-271.85599444026167
tp315
a(F-504.79273136880573
F-269.9973491586485
tp316
a(F-509.25635823514347
F-265.0455333661788
tp317
a(F-514.370121880206
F-260.76840046821076
tp318
a(F-520.9555333496762
F-259.7307106194529
tp319
a(F-525.9364073205599
F-255.29953256721683
tp320
a(F-532.2829504743199
F-253.25849497767916
tp321
a(F-538.9458482277319
F-253.48263326539978
tp322
a(F-545.5490484745135
F-252.564923646104
tp323
a(F-552.205750298315
F-252.92929333946768
tp324
a(F-558.2523077415856
F-255.73706603854328
tp325
a(F-562.9787870219345
F-260.4386442902452
tp326
a(F-568.9833968382051
F-263.3350395324025
tp327
a(F-575.5764192793636
F-262.34685962225234
tp328
a(F-581.9254480367571
F-264.38015209561524
tp329
a(F-586.6284735083382
F-269.10519133969603
tp330
a(F-592.8377031751701
F-271.532105303762
tp331
a(F-599.504282521049
F-271.49798390952554
tp332
a(F-605.8719057414876
F-269.52369442543835
tp333
a(F-611.4039601889704
F-265.8033694349932
tp334
a(F-613.0856810675607
F-259.35230290836694
tp335
a(F-618.8324330601497
F-255.97305950486395
tp336
a(F-622.9913260753546
F-250.76268012016226
tp337
a(F-628.3111740608533
F-246.74476251826587
tp338
a(F-634.8467921797169
F-245.42941456094573
tp339
a(F-628.8210802301659
F-242.57718035852074
tp340
a(F-626.7611621082066
F-248.9176205463364
tp341
a(F-628.8109774138857
F-255.2613341004818
tp342
a(F-630.9190762189471
F-261.5859181874035
tp343
a(F-635.1089507129948
F-266.77141682963384
tp344
a(F-629.5328245559683
F-270.42535464045784
tp345
a(F-626.819326210942
F-276.51480216679255
tp346
a(F-626.9068115318181
F-283.1808947826415
tp347
a(F-623.7442813365188
F-289.04969765957173
tp348
a(F-617.9172465012093
F-292.2885415076962
tp349
a(F-612.1191180244052
F-295.57885313593425
tp350
a(F-605.5645694648159
F-294.3613402512263
tp351
a(F-598.9516342623418
F-293.51663174983474
tp352
a(F-593.1622442793488
F-290.21096871962976
tp353
a(F-589.102840757662
F-284.9227093186018
tp354
a(F-587.7345063413159
F-278.39797902766355
tp355
a(F-582.3708267993303
F-274.4387636741711
tp356
a(F-579.0741733466639
F-268.6442386325938
tp357
a(F-579.3722175272061
F-261.9842375732178
tp358
a(F-578.2453328968093
F-255.41350127701628
tp359
a(F-577.1022319070735
F-248.84556670276012
tp360
a(F-578.9515686943505
F-242.44053759340642
tp361
a(F-582.9246577276435
F-237.08712672014335
tp362
a(F-584.2707134301287
F-230.55776392655838
tp363
a(F-582.3983022095148
F-224.15944221962903
tp364
a(F-581.3757992707118
F-217.5716556274128
tp365
a(F-579.9960083560236
F-211.0493384413057
tp366
a(F-575.6443400560752
F-205.99885059836734
tp367
a(F-570.7115698247625
F-201.51418536119306
tp368
a(F-569.7891615311798
F-194.91163983811074
tp369
a(F-565.5273058672554
F-189.78513705899127
tp370
a(F-561.806248895757
F-184.25357494153226
tp371
a(F-562.7320493333781
F-177.65150420621404
tp372
a(F-565.1642601568564
F-171.44434745335212
tp373
a(F-571.2079576495483
F-168.63042402488549
tp374
a(F-574.4320680443468
F-162.79522423339614
tp375
a(F-574.1382090617703
F-156.1350371982744
tp376
a(F-573.0377339455397
F-149.5598262539015
tp377
a(F-575.2136596505956
F-143.25825567423473
tp378
a(F-576.6629315979238
F-136.7510246757891
tp379
a(F-577.5095020162773
F-130.13832757315288
tp380
a(F-577.4482014867959
F-123.47194274406225
tp381
a(F-574.6429325467303
F-117.42422328807329
tp382
a(F-573.1341818056397
F-110.93052513942924
tp383
a(F-570.2898958335712
F-104.90105735582355
tp384
a(F-564.66452029117
F-101.32340526941299
tp385
a(F-559.683895095212
F-96.89194759706251
tp386
a(F-554.6118747133881
F-92.56539542578253
tp387
a(F-547.985335862852
F-91.83503434605552
tp388
a(F-543.4005481059052
F-86.99518252309706
tp389
a(F-538.2150075463428
F-82.80535990757045
tp390
a(F-535.2210948626522
F-76.84877268946636
tp391
a(F-528.9109157611473
F-74.69793932740056
tp392
a(F-523.8852843058361
F-70.31758855151159
tp393
a(F-520.0199830215995
F-64.88584017492754
tp394
a(F-518.4291531161492
F-58.411760730221175
tp395
a(F-518.347072286892
F-51.74559937739503
tp396
a(F-514.9764835714004
F-45.993766960204354
tp397
a(F-516.0699955100865
F-39.41739439743121
tp398
a(F-514.086438060083
F-33.05265211773284
tp399
a(F-513.3828425745605
F-26.423217915842237
tp400
a(F-515.8420410050453
F-20.226703772878796
tp401
a(F-518.7538165038222
F-14.229537117768528
tp402
a(F-524.850176987677
F-11.53160581854331
tp403
a(F-531.4976822528582
F-11.026513555851608
tp404
a(F-537.8862415993674
F-9.121059824958463
tp405
a(F-544.5516472766203
F-8.991400262684834
tp406
a(F-550.9164244514642
F-7.007954785987634
tp407
a(F-557.5199989536551
F-6.092942087464632
tp408
a(F-563.941640719834
F-7.883741202751254
tp409
a(F-567.4722461452592
F-13.538762845008957
tp410
a(F-569.3241517380081
F-19.943049699920266
tp411
a(F-574.9573917900243
F-23.508305786207167
tp412
a(F-579.4166546997236
F-28.464051819512754
tp413
a(F-585.8454696892084
F-30.22892639732841
tp414
a(F-589.3946408332066
F-35.872314443090886
tp415
a(F-595.8307633568185
F-37.61035106684223
tp416
a(F-602.2989909000439
F-39.224809766686754
tp417
a(F-607.910174263705
F-42.82468000098934
tp418
a(F-614.4432557921767
F-44.15256937393635
tp419
a(F-619.4023959728802
F-48.60805735086739
tp420
a(F-620.9690400729551
F-55.08803194249542
tp421
a(F-620.7280612011593
F-61.75034187432781
tp422
a(F-621.9703210944361
F-68.30024529361579
tp423
a(F-619.5643944192695
F-74.51763713249538
tp424
a(F-616.0882810381697
F-80.20631713810153
tp425
a(F-610.1892453739199
F-83.31208961469311
tp426
a(F-607.9303969856281
F-89.5844136180555
tp427
a(F-610.070927213368
F-95.89809517389726
tp428
a(F-612.6212384865055
F-102.05766957920744
tp429
a(F-611.0929535801853
F-108.54679815626295
tp430
a(F-608.7366209361453
F-114.78315453760261
tp431
a(F-610.4748183310286
F-121.21923364377162
tp432
a(F-610.9824409256909
F-127.86654616431952
tp433
a(F-612.852355016245
F-134.2655981049113
tp434
a(F-618.1627693878968
F-138.295975710769
tp435
a(F-624.3324447833851
F-140.82175281074254
tp436
a(F-630.9577919760328
F-141.56284593668494
tp437
a(F-637.5211527931858
F-140.39376970807322
tp438
a(F-630.8720861638076
F-139.90966496472353
tp439
a(F-635.6707049341235
F-144.53759131910905
tp440
a(F-638.7511147111436
F-150.44991066519344
tp441
a(F-636.4972710061273
F-156.72403474731067
tp442
a(F-629.87583331968
F-157.49928142349881
tp443
a(F-625.3412892613203
F-162.38623902790243
tp444
a(F-624.0642764703351
F-168.92945557453336
tp445
a(F-626.3951101675924
F-175.17538694784946
tp446
a(F-631.9753380968268
F-178.823057533612
tp447
a(F-633.57489707794
F-185.2949858019401
tp448
a(F-633.71758504815
F-191.9601253044263
tp449
a(F-637.2515454463922
F-197.6130509494441
tp450
a(F-638.5885275163388
F-204.1442777399549
tp451
a(F-636.7903452992945
F-210.56385600949488
tp452
a(F-633.8579600787981
F-216.55097229056534
tp453
a(F-635.4416787888343
F-223.02679497899078
tp454
a(F-639.0914647513675
F-228.6056395611726
tp455
a(F-636.4110598618834
F-234.70972623100894
tp456
a(F-632.141799856485
F-239.83006444745035
tp457
a(F-629.1187748569081
F-245.77192983606167
tp458
a(F-623.1971655743629
F-248.83444317469693
tp459
a(F-616.5334973929309
F-248.63451615747246
tp460
a(F-610.6481004522037
F-251.7660568796288
tp461
a(F-604.0746923966947
F-252.8772503732259
tp462
a(F-597.5293573802626
F-254.1433601501062
tp463
a(F-590.8644802476326
F-253.9889022225296
tp464
a(F-584.2311099189641
F-254.65436636670609
tp465
a(F-579.3586982488017
F-259.2045365790069
tp466
a(F-573.0758957471708
F-261.4340740130824
tp467
a(F-566.8480423137512
F-263.81278922434433
tp468
a(F-560.2808958703937
F-264.9604093862189
tp469
a(F-555.9886413326882
F-270.0614872554531
tp470
a(F-551.9777498616254
F-275.3866345822226
tp471
a(F-545.5115735321164
F-277.0092892343718
tp472
a(F-539.4815567843585
F-279.8524111920451
tp473
a(F-536.8425563580382
F-285.9745122361578
tp474
a(F-536.3662510065326
F-292.62414212484873
tp475
a(F-538.6375506736538
F-298.89196808498673
tp476
a(F-536.9067060610693
F-305.3300284583858
tp477
a(F-533.8876864581106
F-311.27392996172483
tp478
a(F-528.5098097375723
F-315.21383940524464
tp479
a(F-524.1327421307356
F-320.2423305914381
tp480
a(F-522.7296450464145
F-326.75967383975745
tp481
a(F-523.644027729187
F-333.3633356083439
tp482
a(F-528.3792748953755
F-338.05608306794034
tp483
a(F-531.5300248495943
F-343.93121874045335
tp484
a(F-532.7650047333578
F-350.4824987017391
tp485
a(F-535.3915614666122
F-356.6099487563246
tp486
a(F-541.1242185867663
F-360.01304834158356
tp487
a(F-545.3192956799203
F-365.1943389749045
tp488
a(F-545.9126115271287
F-371.834551377373
tp489
a(F-548.4433179024826
F-378.0022064979344
tp490
a(F-553.9246886126258
F-381.79681050657996
tp491
a(F-560.5244208276221
F-380.8544840584817
tp492
a(F-566.6567772034332
F-378.2394028504704
tp493
a(F-569.4891405594062
F-372.2043251985934
tp494
a(F-574.7972515996121
F-368.1709145290373
tp495
a(F-581.4460153289282
F-367.6826673414617
tp496
a(F-587.1152742944226
F-371.1903656219021
tp497
a(F-589.479937709764
F-377.4235679591113
tp498
a(F-595.3330849363953
F-380.6149801837893
tp499
a(F-601.9161553551662
F-379.56254096656704
tp500
a(F-608.3274266966109
F-377.73496217734504
tp501
a(F-612.4393346478691
F-372.48742395025
tp502
a(F-613.610172401523
F-365.92437714262604
tp503
a(F-611.5516325636232
F-359.5834893356842
tp504
a(F-613.7002248650583
F-353.2725468096697
tp505
a(F-618.2833358756666
F-348.4311071571608
tp506
a(F-624.0395381605834
F-345.067986627123
tp507
a(F-629.4595364844772
F-341.18622638034924
tp508
a(F-635.8364935020264
F-339.24229643285275
tp509
a(F-629.28034090843
F-338.0334508621019
tp510
a(F-628.663651631447
F-344.6715333246884
tp511
a(F-624.0900863491875
F-349.5219915559645
tp512
a(F-617.439089968556
F-349.97881930169706
tp513
a(F-611.4910654210653
F-352.989707613623
tp514
a(F-604.8939479692656
F-353.9501688422022
tp515
a(F-600.1963901738102
F-358.6806439983361
tp516
a(F-598.2417688682445
F-365.05433209835115
tp517
a(F-597.0712789149869
F-371.6174409435378
tp518
a(F-597.0456911779512
F-378.28405850510217
tp519
a(F-595.5481564008094
F-384.78035237435523
tp520
a(F-590.9720093611536
F-389.62837493163505
tp521
a(F-584.4892769055748
F-391.18356763796737
tp522
a(F-578.0554080141004
F-392.92992829137285
tp523
a(F-571.3913237847522
F-393.1154702774483
tp524
a(F-565.7120008624001
F-389.6240900936112
tp525
a(F-559.08476512897
F-390.3481004374542
tp526
a(F-552.4569233947055
F-389.62965879752403
tp527
a(F-546.6838023896089
F-392.9636531443934
tp528
a(F-544.8095343088456
F-399.3614311653845
tp529
a(F-545.4096961731937
F-406.00102830534917
tp530
a(F-541.3782095492121
F-411.31060079709476
tp531
a(F-540.7434702033327
F-417.9469816185393
tp532
a(F-535.6926615351812
F-422.29827754529157
tp533
a(F-529.072153130458
F-423.0814205127213
tp534
a(F-523.2834454058504
F-426.3882781334109
tp535
a(F-516.6904050010374
F-427.3763381846974
tp536
a(F-510.80155414646447
F-424.2512973758375
tp537
a(F-508.7787353107207
F-417.89892392946297
tp538
a(F-503.0329413095474
F-414.5180518909904
tp539
a(F-497.9301670134756
F-410.2278142602999
tp540
a(F-492.7085365210859
F-406.08305619192123
tp541
a.