(lp0
(I0
I0
tp1
a(F-198.9435961128857
F20.529139428456645
tp2
a(F-362.98672984966
F134.940022974642
tp3
a(F-369.7680890926291
F334.8250228291028
tp4
a(F-493.3785812115833
F177.5976516811059
tp5
a(F-352.92802429483413
F35.212114979603115
tp6
a(F-302.0638739169966
F228.63610058206334
tp7
a(F-193.00161192924955
F60.98937973695993
tp8
a(F-184.91575666576315
F260.82586025204995
tp9
a(F-256.77197578790924
F74.17998225451655
tp10
a(F-117.83669088313573
F-69.68449080408612
tp11
a(F-12.627444124777227
F-239.77568515740597
tp12
a(F-32.98044747528299
F-40.813992224785665
tp13
a(F-0.5070053012538338
F-238.16007288860322
tp14
a(F53.90160475124727
F-430.6170892640913
tp15
a(F12.725827518328636
F-234.90159327753162
tp16
a(F100.26105958424554
F-414.728129548367
tp17
a(F37.38239467984067
F-224.86956771920018
tp18
a(F-84.16281852112228
F-383.69891371021174
tp19
a(F-110.60360347942232
F-185.45440586500322
tp20
a(F-142.99140164804922
F11.905748496986178
tp21
a(F-251.3320205932933
F180.0197285419587
tp22
a(F-248.52800602483873
F380.0000713316937
tp23
a(F-140.05368370809657
F211.97233136616435
tp24
a(F59.80008407755855
F219.61899742905993
tp25
a.