(lp0
(I0
I0
tp1
a(F4.600763207693034
F-4.824668107878773
tp2
a(F11.204192885806414
F-5.740725382647049
tp3
a(F17.82598874542074
F-6.512906733133443
tp4
a(F23.45406479355929
F-10.086309095142742
tp5
a(F28.440621189460042
F-14.511091547981044
tp6
a(F35.079991934788836
F-15.113752771652052
tp7
a(F40.11830174114355
F-19.479514874611215
tp8
a(F41.00556427265701
F-26.08687513757681
tp9
a(F42.241181207130175
F-32.63803497654331
tp10
a(F46.74270582207138
F-37.555424587457104
tp11
a(F51.88867446756968
F-41.793755761869136
tp12
a(F55.63280075919689
F-47.30972918065846
tp13
a(F57.20229653108855
F-53.789013667888405
tp14
a(F62.51896099267305
F-57.81114288602261
tp15
a(F64.14723059047016
F-64.27590758099288
tp16
a(F63.20462102117767
F-70.8755993650327
tp17
a(F59.296151490732996
F-76.27636878929347
tp18
a(F52.99938741455795
F-78.46616481025887
tp19
a(F46.65077654092866
F-80.5007616793414
tp20
a(F39.98411570995773
F-80.49194072460672
tp21
a(F33.39129386056744
F-79.50242341467907
tp22
a(F27.031500982722292
F-81.50179306418228
tp23
a(F23.756081989429195
F-87.30834753846557
tp24
a(F17.344032393271053
F-89.13319394867457
tp25
a(F10.680648726653462
F-89.34238896749281
tp26
a(F4.257631912059088
F-87.55652798637408
tp27
a(F-2.043567374837048
F-85.37952729935901
tp28
a(F-8.207382904372377
F-87.91957111045825
tp29
a(F-14.114941834883048
F-91.00910051264688
tp30
a(F-20.778613958718868
F-91.20889608431422
tp31
a(F-27.274586039877104
F-89.70996607752365
tp32
a(F-33.013708692116325
F-93.1021505694107
tp33
a(F-38.169733823753845
F-97.32824205994503
tp34
a(F-41.086702684348055
F-103.32288442715662
tp35
a(F-47.26743754784358
F-105.82147622887523
tp36
a(F-53.524859000327595
F-103.52166727801925
tp37
a(F-59.891165546062005
F-101.54313615362831
tp38
a(F-66.36297712702253
F-99.94310512111997
tp39
a(F-72.7562399092112
F-101.83271763227818
tp40
a(F-79.27740749629538
F-100.44750366122277
tp41
a(F-84.3828672327279
F-96.16046210274556
tp42
a(F-87.04908972938935
F-90.0501673436737
tp43
a(F-90.73113065670488
F-84.4925582305732
tp44
a(F-96.6687577988726
F-81.46121721296439
tp45
a(F-103.26968237434181
F-82.39515468057722
tp46
a(F-108.94881636251779
F-85.88684217930745
tp47
a(F-114.55003574006301
F-89.50219637067742
tp48
a(F-116.01863750339916
F-96.00509213373333
tp49
a(F-120.33660121702776
F-101.08442612671224
tp50
a(F-125.55583421094956
F-105.23220280821315
tp51
a(F-132.12470697347973
F-106.36990007644125
tp52
a(F-137.56514349441522
F-110.22296313148146
tp53
a(F-139.61237488181357
F-116.56751103427922
tp54
a(F-138.9660413738647
F-123.20277270515152
tp55
a(F-137.7106849793602
F-129.75017866226315
tp56
a(F-136.66410414228295
F-136.3341829906265
tp57
a(F-140.55588445567196
F-141.7469909898781
tp58
a(F-142.4337654802717
F-148.14370946905888
tp59
a(F-145.89735690516264
F-153.84002221379703
tp60
a(F-150.12388111876786
F-158.99569263734557
tp61
a(F-152.92164853198628
F-165.0468860688909
tp62
a(F-155.3346552140581
F-171.26153354052767
tp63
a(F-160.21370210287057
F-175.8045882288639
tp64
a(F-163.95565007481648
F-181.322039616932
tp65
a(F-167.2322427289161
F-187.12793188458085
tp66
a(F-171.0792812407964
F-192.57263014367237
tp67
a(F-176.8289639931174
F-195.94688453421657
tp68
a(F-180.73864258771582
F-201.34677876756814
tp69
a(F-181.74898040830476
F-207.93644203155455
tp70
a(F-186.30898284818736
F-212.79965313047973
tp71
a(F-191.63226095488875
F-216.81302510964613
tp72
a(F-196.70039525232193
F-221.14412880127327
tp73
a(F-203.35716359471692
F-221.50728122124616
tp74
a(F-209.94979272384882
F-222.49808171083322
tp75
a(F-215.81377617658885
F-219.32662423666844
tp76
a(F-222.30024186544813
F-217.78707647459817
tp77
a(F-228.75212105169078
F-216.10847604251995
tp78
a(F-235.01765122947933
F-213.83085095579798
tp79
a(F-238.05618333387523
F-207.89690057725588
tp80
a(F-236.44118442556797
F-201.428807893117
tp81
a(F-234.08825215135352
F-195.19116778187265
tp82
a(F-229.13537718590575
F-190.7287162111455
tp83
a(F-225.6660959280042
F-185.035867012544
tp84
a(F-219.2988061946433
F-183.0605022624583
tp85
a(F-212.77007218193222
F-184.40960442156785
tp86
a(F-206.30784940773714
F-186.04793322285246
tp87
a(F-201.0489505922696
F-190.14530160916075
tp88
a(F-199.13997953766128
F-196.53281082301805
tp89
a(F-197.7635197612711
F-203.055831820104
tp90
a(F-192.30906141440437
F-206.88901960401705
tp91
a(F-187.16423582408203
F-211.12873823732383
tp92
a(F-183.0032854362036
F-216.33747477453312
tp93
a(F-176.39701733836142
F-217.23283295083857
tp94
a(F-170.05926702577835
F-215.16465369850144
tp95
a(F-164.09467594230466
F-218.14258883066776
tp96
a(F-158.87648190015275
F-222.29167251057765
tp97
a(F-156.70174044586793
F-228.59365188625475
tp98
a(F-159.5526111180502
F-234.62000906575676
tp99
a(F-165.7462839265275
F-237.0863548618635
tp100
a(F-171.3765869512699
F-240.65624733839846
tp101
a(F-178.04315913430068
F-240.69174061782894
tp102
a(F-184.60184847003907
F-241.88674632564621
tp103
a(F-190.9371142863285
F-239.8109690058455
tp104
a(F-197.3346497556871
F-237.9358731782295
tp105
a(F-202.69083136336403
F-233.96652020450347
tp106
a(F-205.19560472617079
F-227.78828786463325
tp107
a(F-210.90940776822984
F-224.3536264197451
tp108
a(F-217.45793099762543
F-225.60314150909406
tp109
a(F-221.67697752817102
F-230.76493294400652
tp110
a(F-223.42180406936458
F-237.1992180469213
tp111
a(F-224.35735731049894
F-243.7999138115697
tp112
a(F-222.90448862271649
F-250.30634271078205
tp113
a(F-225.7074519995552
F-256.35513108140185
tp114
a(F-224.0880147831251
F-262.82211395956733
tp115
a(F-223.25280000849276
F-269.4362549260633
tp116
a(F-226.57225887724684
F-275.21774584650024
tp117
a(F-230.33006894207264
F-280.72440617388
tp118
a(F-229.62341055592137
F-287.35351458826926
tp119
a(F-233.5456686977712
F-292.74427849639375
tp120
a(F-234.79696673008007
F-299.2924612732246
tp121
a(F-237.19398643365668
F-305.51329248658425
tp122
a(F-235.53771196690772
F-311.9709390652722
tp123
a(F-231.93575093974707
F-317.58078052499815
tp124
a(F-226.73817146765865
F-321.75565921494467
tp125
a(F-224.13311052629865
F-327.8922789633277
tp126
a(F-226.42726197163307
F-334.1517768337894
tp127
a(F-229.8281300304765
F-339.8857580764151
tp128
a(F-234.47607657005716
F-344.66498786892816
tp129
a(F-236.1314515356245
F-351.12286508731944
tp130
a(F-240.66764500378963
F-356.0082917077714
tp131
a(F-246.6835328831656
F-358.88118875904587
tp132
a(F-249.77578080591314
F-364.78732516355836
tp133
a(F-252.08195557755974
F-371.04240328993416
tp134
a(F-258.03731158828856
F-374.03876428786486
tp135
a(F-264.12147732668063
F-376.76408476667467
tp136
a(F-270.7535258239015
F-376.085573768271
tp137
a(F-277.2898030926074
F-374.77350520640255
tp138
a(F-283.8484110380616
F-373.57805288101736
tp139
a(F-289.2060142970059
F-369.610618979338
tp140
a(F-291.6885616902663
F-363.42342228902174
tp141
a(F-293.31926531622327
F-356.95927113602914
tp142
a(F-295.1854116320266
F-350.55911938997986
tp143
a(F-300.69376018522087
F-346.80378443009056
tp144
a(F-302.28776654460955
F-340.3304863394205
tp145
a(F-304.3809298464019
F-334.00094355684337
tp146
a(F-307.7728119454346
F-328.2616421820499
tp147
a(F-308.67953117180286
F-321.6569238164435
tp148
a(F-305.1424798154637
F-316.00593167814924
tp149
a(F-300.3629248792966
F-311.35831948944355
tp150
a(F-298.4399301380044
F-304.97501817512295
tp151
a(F-297.7702652691604
F-298.3420706095319
tp152
a(F-293.70529637553744
F-293.0580879885989
tp153
a(F-292.29061991160165
F-286.54324839373317
tp154
a(F-289.6167137734229
F-280.43631213987766
tp155
a(F-283.925206281887
F-276.9648301914534
tp156
a(F-277.32596874283416
F-277.91061470581207
tp157
a(F-271.6682366365404
F-281.4368750277194
tp158
a(F-265.0270931841473
F-282.0196769573493
tp159
a(F-258.457427150553
F-280.8865694375254
tp160
a(F-252.20712891206392
F-283.2056676187987
tp161
a(F-245.87473281504973
F-281.1211522998423
tp162
a(F-239.29529218759282
F-282.1960501899761
tp163
a(F-232.63183997008872
F-282.40305016457506
tp164
a(F-225.97602400166278
F-282.7832583166323
tp165
a(F-220.44393585694377
F-279.06298343384424
tp166
a(F-217.92383717413898
F-272.8909864253088
tp167
a(F-218.42064676237152
F-266.24285701340017
tp168
a(F-214.70285527483017
F-260.7090996190424
tp169
a(F-215.66990336173663
F-254.11294449336083
tp170
a(F-216.0297099072619
F-247.45599446393732
tp171
a(F-220.09415908317717
F-242.1716120647495
tp172
a(F-223.5500799495351
F-236.4706423744322
tp173
a(F-228.26953706966168
F-231.76201529897475
tp174
a(F-234.38323827226156
F-229.10361313794397
tp175
a(F-240.81862162697627
F-227.36284160718367
tp176
a(F-247.43864305627196
F-228.15009043704012
tp177
a(F-251.973051437487
F-233.03717393098734
tp178
a(F-258.6011435444948
F-233.75330203786885
tp179
a(F-264.466919870908
F-230.5851618053452
tp180
a(F-271.1045912928362
F-231.2062596550937
tp181
a(F-276.7381135468481
F-227.64144949773655
tp182
a(F-280.7882255489499
F-222.3460706430298
tp183
a(F-286.98158299102545
F-219.87893302239894
tp184
a(F-292.5594792514738
F-216.2276979228579
tp185
a(F-298.82316288691885
F-213.94499957233006
tp186
a(F-304.9715801549361
F-211.3679063371536
tp187
a(F-311.2180130743098
F-209.0384170737723
tp188
a(F-317.0877455827578
F-205.87761263127464
tp189
a(F-322.9755647996389
F-202.75062857091075
tp190
a(F-326.3026203970742
F-196.97350597432177
tp191
a(F-331.9774207281747
F-193.47477968514372
tp192
a(F-335.7413830849919
F-187.9723227956345
tp193
a(F-341.80465927393146
F-185.20083830152606
tp194
a(F-348.26331494356094
F-183.54850317038358
tp195
a(F-352.9604627315463
F-178.81762089513418
tp196
a(F-359.32867023983795
F-176.84521688586486
tp197
a(F-365.99487783851026
F-176.9234517620264
tp198
a(F-371.3189359519351
F-180.93578894243882
tp199
a(F-377.9816435387983
F-181.16551063579718
tp200
a(F-384.6133064373644
F-181.84778011644784
tp201
a(F-390.4042263281734
F-178.5447979392818
tp202
a(F-393.8862235941219
F-172.8597175102666
tp203
a(F-399.03400560652307
F-168.62358899507217
tp204
a(F-405.65857760534067
F-167.87559816830597
tp205
a(F-412.1338279023276
F-169.461655555608
tp206
a(F-418.45050758213193
F-167.32998900870354
tp207
a(F-425.0821702060752
F-166.6477168587234
tp208
a(F-430.66412094390256
F-163.00268319565345
tp209
a(F-437.2421637742561
F-161.91926408631545
tp210
a(F-443.87794089518115
F-162.56028393456646
tp211
a(F-450.0981180350989
F-164.95900042312635
tp212
a(F-456.40196966622847
F-162.78969199481347
tp213
a(F-462.91924477734597
F-164.19310553702138
tp214
a(F-469.205846871818
F-166.411906688595
tp215
a(F-474.2392176651407
F-170.78336215575584
tp216
a(F-480.43614909270804
F-173.24150888174125
tp217
a(F-486.85111906646205
F-171.42695530571245
tp218
a(F-492.08249207081946
F-167.29450071627954
tp219
a(F-497.14242458382495
F-162.95381788885774
tp220
a(F-501.1175560589914
F-157.60192343926465
tp221
a(F-500.86628707144615
F-150.93999366326562
tp222
a(F-505.34048516618316
F-145.9977273963091
tp223
a(F-509.61199163611593
F-140.87926308347397
tp224
a(F-515.074064809487
F-137.05693380760255
tp225
a(F-521.7237271054304
F-136.5810811052321
tp226
a(F-528.2019520315346
F-138.1549445844598
tp227
a(F-533.4629385565041
F-142.2496320241227
tp228
a(F-538.144569358383
F-146.99587026923248
tp229
a(F-544.1890411139926
F-149.80813015055264
tp230
a(F-546.7030637793099
F-155.98260458022807
tp231
a(F-548.8559736703329
F-162.29207551253134
tp232
a(F-547.4500814629858
F-168.80881638092296
tp233
a(F-543.842384463988
F-174.41497074981666
tp234
a(F-537.8103282045365
F-177.25376305064765
tp235
a(F-535.0266329947586
F-183.3114429219766
tp236
a(F-530.272165273723
F-187.98471598633677
tp237
a(F-523.6762971321308
F-188.95371954833925
tp238
a(F-518.3844308473056
F-193.00841998955244
tp239
a(F-512.5907298557496
F-196.3065214532567
tp240
a(F-506.57497655998156
F-199.17970030757473
tp241
a(F-500.1513143563089
F-197.39616215616016
tp242
a(F-494.3219707982808
F-200.63084886848964
tp243
a(F-489.67735311797696
F-205.4133138237458
tp244
a(F-485.13591628122816
F-210.29386665127112
tp245
a(F-484.5291747840795
F-216.9328657625892
tp246
a(F-487.3658320955357
F-222.96592632434442
tp247
a(F-491.83222791609484
F-227.9152447439388
tp248
a(F-494.5126510487313
F-234.0193234028743
tp249
a(F-492.58621792540754
F-240.4015878807697
tp250
a(F-493.3225754466877
F-247.02746307166325
tp251
a(F-489.78069126479556
F-252.6754273851577
tp252
a(F-490.2417011072655
F-259.3261351948265
tp253
a(F-491.6825877785082
F-265.8352280690356
tp254
a(F-496.3116744708642
F-270.6327275051062
tp255
a(F-502.43415520293854
F-273.27084693565195
tp256
a(F-507.13662784705065
F-277.99643636722783
tp257
a(F-507.95704654684823
F-284.612428930817
tp258
a(F-512.8480910574991
F-289.1425644739631
tp259
a(F-514.8457722410305
F-295.5028879196228
tp260
a(F-520.7433427366334
F-298.6114417142095
tp261
a(F-527.2944540632275
F-299.84731583037774
tp262
a(F-531.9630871745368
F-304.6063398181751
tp263
a(F-537.2471327034851
F-308.6712269374499
tp264
a(F-543.5791614420982
F-310.7568578966137
tp265
a(F-550.2412467991934
F-311.00396746587865
tp266
a(F-556.4247559902287
F-313.4956854532974
tp267
a(F-563.0084618123655
F-314.54414245861904
tp268
a(F-569.527107118749
F-313.14710709256383
tp269
a(F-575.9379000803506
F-314.976363238631
tp270
a(F-581.0012529442455
F-319.31305578250954
tp271
a(F-586.0956200804643
F-323.6132729777054
tp272
a(F-588.1891715147466
F-329.94268739267767
tp273
a(F-590.2717591019842
F-336.2757177404597
tp274
a(F-591.3359053025905
F-342.8569058784922
tp275
a(F-594.9918915336672
F-348.4316892036648
tp276
a(F-601.4706909279474
F-350.00318621388084
tp277
a(F-607.3728098558722
F-353.10309534239997
tp278
a(F-612.6710779075232
F-357.1494270264441
tp279
a(F-615.5326589204979
F-363.1707058400042
tp280
a(F-617.2103501570394
F-369.6228215053713
tp281
a(F-622.3736824422667
F-373.8399821801351
tp282
a(F-623.8450770464091
F-380.34224658289094
tp283
a(F-628.7469229725893
F-384.8606922183318
tp284
a(F-631.5129801303035
F-390.92644627242123
tp285
a(F-637.3968460773976
F-394.06086263931803
tp286
a(F-630.8881110023752
F-395.5033646904839
tp287
a(F-625.7662129313869
F-399.77075318871675
tp288
a(F-621.7555195719106
F-405.09604972700424
tp289
a(F-616.6583443597501
F-409.3929380547342
tp290
a(F-613.7735226650808
F-415.4031167737416
tp291
a(F-612.1139859110243
F-421.85992575390975
tp292
a(F-615.2229513753052
F-427.75727924393834
tp293
a(F-618.7353402029742
F-433.4236333775688
tp294
a(F-621.8778964795304
F-439.30315584908993
tp295
a(F-624.3681518207837
F-445.4872542295981
tp296
a(F-628.4369640776101
F-450.76827792421864
tp297
a(F-628.9264022994784
F-457.4169540835318
tp298
a(F-626.1060938625976
F-463.4576746337065
tp299
a(F-627.796559695207
F-469.90645511634233
tp300
a(F-629.6221689682036
F-476.3182875554188
tp301
a(F-632.5249114550139
F-482.31983156506425
tp302
a(F-638.7531670197181
F-484.697493665779
tp303
a(F-632.1476056617079
F-483.7969362883699
tp304
a(F-631.659115129899
F-490.44568214339984
tp305
a(F-631.3050046793402
F-497.10293760141326
tp306
a(F-626.7735279112923
F-501.9927395140766
tp307
a(F-620.3162375394367
F-503.6504021751705
tp308
a(F-614.3972597402119
F-506.71799834427884
tp309
a(F-611.3304157190128
F-500.79863079410256
tp310
a(F-604.6935801911009
F-501.4285979518898
tp311
a(F-600.409350193439
F-506.53641722938767
tp312
a(F-600.1867354988239
F-499.8734683970623
tp313
a(F-594.1240189325855
F-497.10075992304206
tp314
a(F-588.4538516975791
F-493.5945300430279
tp315
a(F-582.016824217552
F-491.8598480359095
tp316
a(F-575.4028921549991
F-492.6967154784472
tp317
a(F-568.8878784020781
F-491.28284128188875
tp318
a(F-564.028981616304
F-486.71824201474175
tp319
a(F-557.4358944495806
F-485.73049404261957
tp320
a(F-553.1134181826224
F-480.65499964640287
tp321
a(F-553.5044071856803
F-473.9998082859736
tp322
a(F-556.0466822184383
F-467.8369126919967
tp323
a(F-554.3792966952708
F-461.38212609896544
tp324
a(F-556.3656028129682
F-455.0182410865503
tp325
a(F-555.7654672056597
F-448.37864157322986
tp326
a(F-553.1039938651139
F-442.2662767197538
tp327
a(F-551.2728994949052
F-435.85600856219327
tp328
a(F-547.225987758551
F-430.55818355162495
tp329
a(F-543.5220562819571
F-425.0151396170037
tp330
a(F-537.4298234388059
F-422.3079005382974
tp331
a(F-530.8921719975997
F-421.00269630993387
tp332
a(F-524.3886380335963
F-419.5369233317758
tp333
a(F-517.933321991942
F-417.8715887567416
tp334
a(F-513.515660777627
F-412.8787224617181
tp335
a(F-509.44325152125316
F-407.60047206096544
tp336
a(F-506.98497914032475
F-401.4035904786203
tp337
a(F-507.03520068246416
F-394.73711297988456
tp338
a(F-509.4672530843075
F-388.52989415345894
tp339
a(F-515.1022343564118
F-384.96739074890223
tp340
a(F-520.6219954063172
F-381.22885060649475
tp341
a(F-525.1120574136426
F-376.30099228722287
tp342
a(F-527.0749648944975
F-369.9298512068474
tp343
a(F-528.5271335005749
F-363.42326602074803
tp344
a(F-533.2300524226614
F-358.698120725974
tp345
a(F-537.7480733044362
F-353.7958833024814
tp346
a(F-541.1894239710056
F-348.08610659632666
tp347
a(F-542.6069002023381
F-341.57187559197536
tp348
a(F-542.5105403511527
F-334.9059053532536
tp349
a(F-543.4524767917168
F-328.3061174637543
tp350
a(F-548.1367304207391
F-323.5624677735437
tp351
a(F-548.9995639377155
F-316.95187303733223
tp352
a(F-551.7982208942109
F-310.901090965211
tp353
a(F-551.5782699045965
F-304.2380536693066
tp354
a(F-548.4294808500716
F-298.3618668160362
tp355
a(F-542.0993110225722
F-296.27060059686147
tp356
a(F-535.4886900053095
F-295.407968455929
tp357
a(F-530.8895341083272
F-290.5817681410128
tp358
a(F-529.3364918983048
F-284.09852016346844
tp359
a(F-529.6720259439854
F-277.44030258301694
tp360
a(F-531.3201568830982
F-270.9805728013633
tp361
a(F-529.3689615030772
F-264.60583507864646
tp362
a(F-527.8170049378119
F-258.1223271343331
tp363
a(F-522.832120090678
F-253.69566162796613
tp364
a(F-522.4219183210049
F-247.04162684051562
tp365
a(F-526.006234229645
F-241.42049493390516
tp366
a(F-530.2984359199337
F-236.31937259717108
tp367
a(F-531.8977640589159
F-229.84738727979712
tp368
a(F-531.2106627529079
F-223.21622326133652
tp369
a(F-527.3574460161201
F-217.77589558519577
tp370
a(F-520.8894002146513
F-216.1607089227485
tp371
a(F-516.7648333956903
F-210.923114723083
tp372
a(F-513.461931427612
F-205.13214908394224
tp373
a(F-510.0407105723955
F-199.4102881712429
tp374
a(F-503.9315705863683
F-196.74142079432661
tp375
a(F-498.0429157544496
F-193.61601062685014
tp376
a(F-492.6398581682129
F-189.7107048559463
tp377
a(F-489.6699222072632
F-183.74212673110767
tp378
a(F-491.1136343542409
F-177.23365996226622
tp379
a(F-496.5145680581989
F-173.32541744549542
tp380
a(F-499.46568277992617
F-167.3475109270185
tp381
a(F-498.6470040012008
F-160.73130283614734
tp382
a(F-493.87839727585276
F-156.07245809271467
tp383
a(F-493.3377444443444
F-149.42775050244205
tp384
a(F-489.89694167450057
F-143.71764360821675
tp385
a(F-484.22567141509086
F-140.21319813294116
tp386
a(F-478.6595302366215
F-136.54406787826332
tp387
a(F-476.5285406394081
F-130.22715979115196
tp388
a(F-478.34035298964545
F-123.8114150602597
tp389
a(F-481.1488722323208
F-117.76520433717316
tp390
a(F-483.12036769036496
F-111.39671549731833
tp391
a(F-488.7854157745298
F-107.88222056226085
tp392
a(F-490.3963099880832
F-101.41310437245683
tp393
a(F-493.57126527549013
F-95.55101401428158
tp394
a(F-496.34176662396044
F-89.48728853215685
tp395
a(F-496.00280472956683
F-82.82924457926848
tp396
a(F-497.9873382355263
F-76.46480656730161
tp397
a(F-498.23465160373627
F-69.80272877262306
tp398
a(F-497.24471387749327
F-63.20997003726763
tp399
a(F-493.19716821645943
F-57.91262933024391
tp400
a(F-488.8278069344228
F-52.87744051238575
tp401
a(F-482.91637575634417
F-49.7953266482847
tp402
a(F-478.85191234628184
F-44.51095519723125
tp403
a(F-477.74981797706033
F-37.93601546779078
tp404
a(F-475.36189374813375
F-31.71168720513064
tp405
a(F-473.9839840781956
F-25.188972326651324
tp406
a(F-473.3314289208213
F-18.554319644631818
tp407
a(F-469.92348657838346
F-12.824540117017879
tp408
a(F-469.1934870471373
F-6.19796142746587
tp409
a(F-469.0372894616009
F0.46687516158243536
tp410
a(F-465.42654560372495
F6.071067631265769
tp411
a(F-459.2017633885528
F8.457808257752342
tp412
a(F-452.66988661476853
F9.791611187926735
tp413
a(F-446.1829511826733
F8.254043906708816
tp414
a(F-441.55720372521637
F3.4533246997279265
tp415
a(F-435.0696033394517
F1.9185655397713088
tp416
a(F-429.456952254295
F-1.6790159034671432
tp417
a(F-423.5648986149163
F-4.798013876395072
tp418
a(F-420.84133581241883
F-10.882966637534363
tp419
a(F-416.14931704870486
F-15.618935848308503
tp420
a(F-410.866891672967
F-19.685928176086488
tp421
a(F-404.226907382849
F-20.281791475368088
tp422
a(F-397.5749096762504
F-20.72379934390872
tp423
a(F-391.0650562160884
F-22.161245820011757
tp424
a(F-384.96337895446266
F-24.84713097008873
tp425
a(F-378.33317396493857
F-25.543425621320733
tp426
a(F-371.6949989518498
F-26.159117865910996
tp427
a(F-365.7299390518182
F-29.136113807036683
tp428
a(F-360.659320272437
F-33.46430853909661
tp429
a(F-359.1166537063621
F-39.95003319485861
tp430
a(F-357.2527021260669
F-46.35082447022131
tp431
a(F-358.0012189353462
F-52.97533705837984
tp432
a(F-358.26019676057956
F-59.63697161233744
tp433
a(F-362.3144318741536
F-64.92919440510681
tp434
a(F-367.34594700752325
F-69.3027855962353
tp435
a(F-368.24734032820606
F-75.9082329335375
tp436
a(F-371.3176989920371
F-81.82577821176582
tp437
a(F-373.8446270672392
F-87.99498228905165
tp438
a(F-375.9145996687624
F-94.33214710254575
tp439
a(F-378.5833553531347
F-100.44133588188257
tp440
a(F-383.31100211140335
F-105.14174018082075
tp441
a(F-385.6825623761695
F-111.37232172310287
tp442
a(F-383.9747292932195
F-117.81652459120268
tp443
a(F-384.36393413568146
F-124.47182053015601
tp444
a(F-386.8415086923762
F-130.66101019928584
tp445
a(F-389.9604423437893
F-136.55309788723886
tp446
a(F-388.3816617245481
F-143.03012623369165
tp447
a(F-389.8913889675095
F-149.5235974237644
tp448
a(F-388.711434213705
F-156.08501123661134
tp449
a(F-391.0834347197531
F-162.31542519105705
tp450
a(F-396.1396770358946
F-166.6604059832936
tp451
a(F-396.93209955062696
F-173.27981011075022
tp452
a(F-396.9576539830178
F-179.94642780006086
tp453
a(F-398.35627068559
F-186.4647340036486
tp454
a(F-401.12609707617247
F-192.52876782697754
tp455
a(F-404.51860142014937
F-198.2677014143736
tp456
a(F-407.7794975935988
F-204.0824241584455
tp457
a(F-411.53706356388943
F-209.58925105089077
tp458
a(F-413.42782720189933
F-215.9821734897777
tp459
a(F-412.81001810496343
F-222.62015182389325
tp460
a(F-415.85041219340945
F-228.55314838814195
tp461
a(F-414.479437494256
F-235.07732441417969
tp462
a(F-413.56413464091264
F-241.68085870508074
tp463
a(F-415.75631718023396
F-247.97679232597758
tp464
a(F-418.2822621177416
F-254.146399008508
tp465
a(F-417.31907961664575
F-260.74311970246094
tp466
a(F-413.24604924250013
F-266.02089082441495
tp467
a(F-408.587480087407
F-270.78976677915097
tp468
a(F-403.7645387554553
F-275.3923401194679
tp469
a(F-401.52395808405856
F-281.67121284467964
tp470
a(F-400.1270053619065
F-288.18987586224057
tp471
a(F-396.5018553506839
F-293.7847602972023
tp472
a(F-395.13672622309196
F-300.310161963724
tp473
a(F-390.23307783603957
F-304.82665141246656
tp474
a(F-384.8047447576055
F-308.69674759137774
tp475
a(F-382.2916996410518
F-314.8716199533469
tp476
a(F-376.4276885246476
F-318.04302627722467
tp477
a(F-370.01224251862067
F-319.85589609830885
tp478
a(F-363.7453259380699
F-322.12970370161713
tp479
a(F-359.9426084382129
F-327.60544877062154
tp480
a(F-356.0669048796587
F-333.0297797312705
tp481
a(F-349.66631461303507
F-334.89442143498934
tp482
a(F-346.4453636131876
F-340.7313657640905
tp483
a(F-343.22837027745726
F-346.5704922674565
tp484
a(F-343.22000404550937
F-353.2371536845833
tp485
a(F-338.73587508630266
F-358.17041142381083
tp486
a(F-332.5874284102642
F-360.74743449634155
tp487
a(F-327.98633813191896
F-365.57179069120957
tp488
a(F-327.38628214517007
F-372.2113974007377
tp489
a(F-328.54218422581744
F-378.77709118162636
tp490
a(F-331.1559354199736
F-384.9100145579202
tp491
a(F-333.8346909974677
F-391.0148252020343
tp492
a(F-339.6680287428249
F-394.2423033496033
tp493
a(F-346.11884159242607
F-392.55960966866644
tp494
a(F-350.8371706778466
F-387.8498522347725
tp495
a(F-351.2468084359235
F-381.19578270165204
tp496
a(F-354.56979047795363
F-375.41631604868223
tp497
a(F-359.82410344611964
F-371.313068593677
tp498
a(F-364.0841168352745
F-366.1850348214923
tp499
a(F-370.28124232714566
F-363.72737738351515
tp500
a(F-376.3233397833651
F-360.91001997381517
tp501
a(F-382.90668656532773
F-361.96072906431874
tp502
a(F-386.81997913035104
F-367.35800483501805
tp503
a(F-392.27210155491275
F-371.19451438303633
tp504
a(F-398.2508924298365
F-374.14383703720176
tp505
a(F-400.8717512076155
F-380.2737264090733
tp506
a(F-398.99568452576887
F-386.67097724437036
tp507
a(F-400.7259990756247
F-393.10918009943805
tp508
a(F-406.3619393863841
F-396.6701660946368
tp509
a(F-409.9041397851491
F-402.3179320936344
tp510
a(F-416.30404749412014
F-404.1849151575902
tp511
a(F-422.3900398657876
F-406.90615408433837
tp512
a(F-425.91307630256523
F-412.5658942470651
tp513
a(F-429.6389333491119
F-418.0942243487453
tp514
a(F-435.59434957826613
F-421.0904656577808
tp515
a(F-440.44816879617247
F-425.6604638464377
tp516
a(F-444.7078874886144
F-430.7887424178207
tp517
a(F-451.1304853757449
F-432.57610942676735
tp518
a(F-457.7767911687455
F-432.0554715964368
tp519
a(F-464.4360616642344
F-432.3694157194202
tp520
a(F-470.70266983547094
F-434.64407316014297
tp521
a(F-477.2289120767304
F-436.00517809836236
tp522
a(F-483.8830011704235
F-435.5958582019007
tp523
a(F-490.48194466557237
F-436.54369214952885
tp524
a(F-496.9442062096776
F-434.9055162798423
tp525
a(F-500.57409192883966
F-429.313703147211
tp526
a(F-502.8557947073978
F-423.0496567812616
tp527
a(F-508.107883080227
F-418.9435622659786
tp528
a(F-510.31527353542253
F-412.6529445043628
tp529
a(F-512.0053666555424
F-406.20406633139595
tp530
a(F-514.4926054587856
F-400.0187540854308
tp531
a(F-519.8397711364654
F-396.03726395485313
tp532
a(F-526.5012780867507
F-396.2995035318506
tp533
a(F-531.4170429829785
F-391.79620474879613
tp534
a(F-534.2735845778865
F-385.7725335624676
tp535
a(F-535.7109993761685
F-379.26267310757885
tp536
a(F-539.0660970762156
F-373.50179089496737
tp537
a(F-538.3843620426258
F-366.8700730339286
tp538
a(F-535.151334350891
F-361.03980919865313
tp539
a(F-528.8552445530806
F-358.8480752498462
tp540
a(F-525.8676226232644
F-352.8883303183139
tp541
a.