(lp0
(I0
I0
tp1
a(F-120.44292448164909
F159.6668467225046
tp2
a(F-112.00143659361675
F-40.15492707163477
tp3
a(F-283.6753295818124
F62.451478509486506
tp4
a(F-372.59788078382064
F-116.69309966056649
tp5
a(F-274.145156309656
F57.396133331064036
tp6
a(F-170.09129082621791
F-113.40431478882404
tp7
a(F-39.01979452206206
F37.65945603856413
tp8
a(F156.06813416481285
F81.71283366917056
tp9
a(F10.391781556915873
F-55.32146966710967
tp10
a(F-124.86982623485147
F92.00231475884819
tp11
a(F-293.35073375197834
F199.7714374341551
tp12
a(F-476.78948870091693
F120.08314982058381
tp13
a(F-626.304421919045
F-12.75240545276425
tp14
a(F-492.3523914990804
F135.76309389450546
tp15
a(F-336.1644126417111
F260.68433012137757
tp16
a(F-158.45418117997767
F352.43984022195474
tp17
a(F41.39678881529278
F344.72039775831104
tp18
a(F106.11516872632716
F155.4810485159005
tp19
a(F121.26305832933161
F-43.944480041942825
tp20
a(F-78.440742895162
F-54.8252785644751
tp21
a(F-257.64247019613003
F-143.63260333191465
tp22
a(F-80.58355641736239
F-50.62646884884451
tp23
a(F-112.19360954857399
F146.8597446979294
tp24
a(F-272.0201831110711
F26.628856889214845
tp25
a.