(lp0
(I0
I0
tp1
a(F184.20414416874945
F77.90271671166907
tp2
a(F78.56175050501965
F-91.91979257669807
tp3
a(F18.957369100483014
F98.99201354692154
tp4
a(F211.71738837193365
F152.31719493873663
tp5
a(F46.51104770574236
F265.0419260481358
tp6
a(F53.904205896338055
F65.17861973112113
tp7
a(F75.89526316886955
F-133.6086872078186
tp8
a(F207.04940027633774
F-284.6007145456732
tp9
a(F132.0514420577049
F-470.0065026512127
tp10
a(F256.2886119504521
F-313.27384614006735
tp11
a(F391.85013831398646
F-460.3217042339164
tp12
a(F292.54717270716657
F-286.71605622184643
tp13
a(F94.64706096834789
F-257.8102475709354
tp14
a(F-64.25606375153853
F-379.2589896568715
tp15
a(F-233.5958038813136
F-485.6735206795671
tp16
a(F-355.7867454811925
F-327.3404104627367
tp17
a(F-168.55931568942478
F-397.6674289802929
tp18
a(F-139.0141110893345
F-199.8617645388043
tp19
a(F-91.18738383801346
F-394.0590975802952
tp20
a(F81.15556453514205
F-495.53770688318156
tp21
a(F148.89278099125278
F-307.3578208518153
tp22
a(F315.9303446604976
F-197.36485597022397
tp23
a(F205.36269727829637
F-30.70713681996918
tp24
a(F306.6345890187657
F141.75736371073904
tp25
a.