(lp0
(I0
I0
tp1
a(F158.62823167048415
F-121.80757003197795
tp2
a(F-41.36593761219456
F-120.28039848586451
tp3
a(F63.26732101927497
F-290.7265224903722
tp4
a(F263.217806212004
F-295.1766316117579
tp5
a(F245.8339149205599
F-95.93356316628538
tp6
a(F47.79201127937654
F-68.01574802655333
tp7
a(F-152.206536167685
F-67.25350196032105
tp8
a(F-304.9743826261024
F-196.3348138860115
tp9
a(F-421.3769466665256
F-358.9707357631146
tp10
a(F-614.8705908720376
F-308.3722214363999
tp11
a(F-548.998414367381
F-119.53139861850556
tp12
a(F-554.9806028419243
F80.37911491456262
tp13
a(F-378.924554054101
F175.26993472986175
tp14
a(F-179.0235787521953
F181.56279364667245
tp15
a(F-166.1169724952769
F381.1459079497839
tp16
a(F-74.2381924262914
F203.4993775219847
tp17
a(F-192.41644499078447
F42.14913543724879
tp18
a(F-379.64976279675795
F-28.16220577714799
tp19
a(F-473.85721980488825
F-204.5848660112043
tp20
a(F-283.65629508583936
F-142.74953439554375
tp21
a(F-480.595089498999
F-177.6079803604922
tp22
a(F-280.81862611944246
F-187.06126971165008
tp23
a(F-219.7485250264775
F-377.5092750897454
tp24
a(F-332.01666334993877
F-211.99231185822595
tp25
a.