(lp0
(I0
I0
tp1
a(F5.064833639822369
F4.334963050058
tp2
a(F9.739773694947333
F9.087791673670747
tp3
a(F16.167081340860395
F10.858147815590202
tp4
a(F21.394958742987548
F14.995023727769912
tp5
a(F23.412593628693703
F21.34904559682466
tp6
a(F25.012945419067353
F27.820777868132883
tp7
a(F24.428806799965567
F34.461803882094756
tp8
a(F20.23186930337733
F39.641587670456595
tp9
a(F20.042188763093566
F46.30555538774651
tp10
a(F20.514992033580878
F52.95543519958228
tp11
a(F24.353834108720495
F58.4059155423211
tp12
a(F27.842047519861758
F64.08718403120443
tp13
a(F27.78551332276763
F70.75361098490335
tp14
a(F26.976298955145023
F77.37098331473923
tp15
a(F28.210018768525735
F83.92250068604463
tp16
a(F26.146392317461437
F90.26173489176003
tp17
a(F23.48724012542862
F96.37510990594421
tp18
a(F23.97523757945554
F103.02389196954863
tp19
a(F27.761914778499687
F108.51074172461607
tp20
a(F26.977771998415818
F115.13113178449069
tp21
a(F28.42376375675044
F121.63909246962646
tp22
a(F33.474589206322094
F125.99036891710756
tp23
a(F40.14071511018633
F126.0752799191902
tp24
a(F46.20502252869064
F123.30605259404732
tp25
a(F52.16803352414652
F120.32495475725686
tp26
a(F58.834583706270664
F120.3643643203731
tp27
a(F64.11409268399738
F116.29358682724633
tp28
a(F70.76026004687164
F115.771184846862
tp29
a(F77.33524412381038
F114.66935508122377
tp30
a(F83.33290113455261
F111.7585897478554
tp31
a(F88.19403038920409
F107.19636805069774
tp32
a(F93.92355514881025
F103.78799740279216
tp33
a(F100.53541018414315
F102.93487523323641
tp34
a(F107.04474665249543
F104.37466104585694
tp35
a(F110.7842101272289
F109.89379660911126
tp36
a(F115.73653263252459
F114.35686127904226
tp37
a(F121.1650242154251
F118.22673512437918
tp38
a(F126.42404049597452
F122.32395274190459
tp39
a(F132.88035643903453
F123.98540658954337
tp40
a(F139.2590632932693
F125.92358700224567
tp41
a(F145.19871216570147
F128.95096469864558
tp42
a(F151.7505702185489
F127.71905540824191
tp43
a(F156.02800273362402
F122.60554237673193
tp44
a(F159.9192444797301
F117.19234719109475
tp45
a(F162.0682604803354
F110.88154893147761
tp46
a(F161.7122059345257
F104.22439716778372
tp47
a(F160.01274415197148
F97.77798156730604
tp48
a(F157.39649465826238
F91.6461235266212
tp49
a(F152.33166879071152
F87.31115139570363
tp50
a(F151.4418990717302
F80.70412829209424
tp51
a(F154.85687205553214
F74.9785362734164
tp52
a(F160.88064344818596
F72.1222059960343
tp53
a(F167.54207100813178
F71.85795742359029
tp54
a(F173.9623861292925
F73.65350697440743
tp55
a(F179.83623397096113
F70.50035680713518
tp56
a(F186.50287712490078
F70.51806280820807
tp57
a(F192.90362617821228
F68.65396624392378
tp58
a(F198.69918053043963
F65.35912266723871
tp59
a(F202.33439190452458
F59.770770252602716
tp60
a(F208.83704490736963
F58.30109397224885
tp61
a(F215.2848592113659
F56.606946651138394
tp62
a(F221.4494779434999
F54.06885281286782
tp63
a(F225.53788004730112
F48.80298036074004
tp64
a(F227.39417901883343
F42.39996555732653
tp65
a(F227.49578185520218
F35.73407317084997
tp66
a(F226.74816906431906
F29.10945849833109
tp67
a(F229.12907403505332
F22.882441880015598
tp68
a(F233.03820624802134
F17.482152092793047
tp69
a(F239.51826698618422
F15.9158643560842
tp70
a(F246.12854640483908
F16.781110247003305
tp71
a(F252.79504012742254
F16.733090551046534
tp72
a(F258.7519041065924
F13.739728565233058
tp73
a(F263.23088220434187
F8.80179381026465
tp74
a(F263.8517535911601
F2.164101201724023
tp75
a(F265.0572243681936
F-4.3926727497068745
tp76
a(F268.728360921395
F-9.957490882601503
tp77
a(F274.37023668146503
F-13.509065512590048
tp78
a(F280.6477830916969
F-15.753359502206683
tp79
a(F287.1627319718213
F-17.16753259409131
tp80
a(F290.97977747941
F-22.633299515342287
tp81
a(F297.39068733709837
F-24.46214593892167
tp82
a(F303.7416831627842
F-22.435005966802066
tp83
a(F308.1142376556235
F-17.402589881898606
tp84
a(F310.9953267699001
F-11.390620989760063
tp85
a(F317.17304113553615
F-8.884570379525265
tp86
a(F321.5026925168333
F-3.815195333143669
tp87
a(F328.1142265283471
F-2.959588847053
tp88
a(F334.72774894305985
F-3.799687480867087
tp89
a(F340.4682866686919
F-0.4098982447877746
tp90
a(F346.1317797721553
F3.107101941659027
tp91
a(F352.5079776401834
F5.053520496903054
tp92
a(F358.1741812791895
F8.56615209810441
tp93
a(F360.92982827318156
F14.636642530429203
tp94
a(F358.86183219009115
F20.97445261316023
tp95
a(F353.35669613963006
F24.734495366954167
tp96
a(F346.7328268741136
F23.980306797834796
tp97
a(F340.08675585034547
F24.503932992246433
tp98
a(F333.46886593893737
F25.308903528929324
tp99
a(F326.87230697477395
F26.27319304808813
tp100
a(F320.882105883636
F29.19927153852104
tp101
a(F314.8824337941563
F32.105881120691215
tp102
a(F310.3960661814314
F37.037103087702775
tp103
a(F309.18419838515257
F43.59269771281396
tp104
a(F308.47409545471623
F50.22143803602999
tp105
a(F303.6895371507677
F54.863899266946355
tp106
a(F298.3316404806034
F58.83093691691729
tp107
a(F295.20882806921406
F64.7209697765639
tp108
a(F296.8880577559811
F71.17268521538517
tp109
a(F295.0541214039534
F77.58214087879027
tp110
a(F293.28483959305436
F84.00974434494049
tp111
a(F295.6158065171142
F90.25562599954965
tp112
a(F301.003499712608
F94.18210106959333
tp113
a(F306.511437019626
F97.93803917696466
tp114
a(F312.0733442189907
F101.6135844086411
tp115
a(F315.5610284682781
F107.29517776101306
tp116
a(F319.7811279774082
F112.456108353211
tp117
a(F321.8173231312659
F118.80420678816384
tp118
a(F324.20481985473145
F125.0286990437527
tp119
a(F323.7580900261499
F131.6803813050081
tp120
a(F324.4578791707666
F138.31021837672571
tp121
a(F329.53834971683364
F142.62684477647235
tp122
a(F333.3302816036817
F148.11006436079953
tp123
a(F339.3545090287576
F150.9654327040099
tp124
a(F345.9878094131227
F150.29927172104402
tp125
a(F351.65472892465135
F153.81074828999624
tp126
a(F358.31750339968653
F153.58297485154458
tp127
a(F364.95583378934873
F152.96896012685835
tp128
a(F371.18546791563205
F155.34300795642935
tp129
a(F377.416889779825
F157.7123593433922
tp130
a(F383.55350724963375
F155.10729303450822
tp131
a(F389.96575553010575
F156.9314411737853
tp132
a(F396.5389796934285
F158.04372195809947
tp133
a(F402.98884811537
F159.73003206720927
tp134
a(F406.475426327929
F165.412304219452
tp135
a(F412.0728168640794
F169.0335835003496
tp136
a(F415.9730929824889
F174.440272935171
tp137
a(F419.4877173059269
F180.1052407470427
tp138
a(F423.8580648784884
F185.13957352700967
tp139
a(F430.3532235632771
F186.64202422632013
tp140
a(F436.9999673257237
F186.12700791510102
tp141
a(F443.66232913208694
F186.36654831995187
tp142
a(F450.2185612193395
F187.57496267873947
tp143
a(F456.43865394251424
F189.97389805918496
tp144
a(F461.61159522992455
F194.179266399943
tp145
a(F464.7095087363275
F200.08243303754443
tp146
a(F469.1305020042871
F205.07234916600794
tp147
a(F473.27273570491394
F210.2959824239842
tp148
a(F479.5619332198725
F212.5074161359193
tp149
a(F486.0811099927786
F213.90196934323924
tp150
a(F491.94939045802784
F210.73846988447238
tp151
a(F498.4768705664241
F212.09362591937594
tp152
a(F505.11492672948873
F211.4766536181789
tp153
a(F509.7023914351153
F206.63933907195857
tp154
a(F514.1088598824075
F201.63659179996262
tp155
a(F520.0159788153695
F198.54622121437166
tp156
a(F526.6721106743896
F198.17158389671252
tp157
a(F533.3071564251372
F197.52303757613777
tp158
a(F538.3810996122539
F193.19874052593917
tp159
a(F539.3476965758683
F186.60251927780203
tp160
a(F544.3441136664517
F182.18887444599108
tp161
a(F548.1994142428315
F176.75002328878793
tp162
a(F554.750399043322
F175.5134786724528
tp163
a(F561.0915929184529
F173.45588185032094
tp164
a(F566.8419949757421
F170.08285344487155
tp165
a(F573.493726056688
F170.52885576686288
tp166
a(F579.3412193044475
F167.327095756829
tp167
a(F585.5586551266783
F164.92128274645492
tp168
a(F590.6223009848771
F160.58493231467588
tp169
a(F595.6474974787403
F156.2040825520716
tp170
a(F602.3136767885894
F156.12347328843413
tp171
a(F608.663489591441
F158.15431592467792
tp172
a(F614.8799343022904
F160.56268873663996
tp173
a(F619.9611144768519
F164.8784797971627
tp174
a(F626.2787660409115
F167.0072642295514
tp175
a(F632.940922607197
F166.7620819896912
tp176
a(F639.1311465007659
F169.23707140218028
tp177
a(F634.6811675531656
F174.20115558864995
tp178
a(F628.2347500419
F175.90061012316806
tp179
a(F622.1115923993968
F178.53715804222796
tp180
a(F618.9354028913375
F184.39857976851061
tp181
a(F619.7406476288576
F191.01643632159036
tp182
a(F618.7691439209862
F197.61193668092903
tp183
a(F613.570884277645
F201.78596843989482
tp184
a(F610.7516135060288
F207.82717334957593
tp185
a(F604.6967671433573
F210.61702638672475
tp186
a(F599.8759724930768
F215.22184814052488
tp187
a(F597.1851756053389
F221.3213609533145
tp188
a(F591.3948958884491
F224.62546525624123
tp189
a(F586.9570823143175
F229.6004280828056
tp190
a(F580.5588364267813
F231.47309837067547
tp191
a(F574.2702707110162
F229.25986867564885
tp192
a(F571.1010132275429
F223.39469592048698
tp193
a(F566.3538908540822
F218.713961617428
tp194
a(F560.4855450513946
F215.55058336237792
tp195
a(F557.7348878262017
F209.47783033974162
tp196
a(F554.6928262407348
F203.5456885886814
tp197
a(F553.6617290668808
F196.9592416662114
tp198
a(F549.7861045434149
F191.53485423558345
tp199
a(F544.6920212849403
F187.23430075955585
tp200
a(F541.3079684102433
F181.49037957401544
tp201
a(F535.327162272618
F178.54514573124706
tp202
a(F533.176314878902
F172.23497141246716
tp203
a(F531.3460666723744
F165.82446160848536
tp204
a(F531.5551210230136
F159.1610735271169
tp205
a(F529.0237622115166
F152.99368615385254
tp206
a(F530.0337026789258
F146.40396197929607
tp207
a(F533.3842092168503
F140.6404083546848
tp208
a(F538.9617595697173
F136.9886448758054
tp209
a(F545.3022861559158
F134.92899270756104
tp210
a(F551.9237767773509
F134.15419828663934
tp211
a(F557.9098667919568
F131.21971864256622
tp212
a(F564.4166623701271
F129.7684930404121
tp213
a(F570.5417014283652
F132.4006672328817
tp214
a(F576.7519825232772
F129.97644505522905
tp215
a(F582.9737080368108
F132.3711425473332
tp216
a(F589.1718998797965
F129.9161756795343
tp217
a(F595.7056641602599
F128.59164981274859
tp218
a(F601.7800004243857
F125.84449066286845
tp219
a(F606.2513802813986
F120.89967452687881
tp220
a(F610.093077364998
F115.45120612169293
tp221
a(F615.6788873589851
F111.81208931187254
tp222
a(F618.6775766631565
F105.85790532903388
tp223
a(F620.1766640738394
F99.36196957045559
tp224
a(F623.079291878702
F93.3603700944089
tp225
a(F623.7739191260413
F86.72999020848243
tp226
a(F623.5037790257425
F80.06879896587012
tp227
a(F627.379253464846
F74.64430430587646
tp228
a(F633.1841458338425
F71.36594053277098
tp229
a(F639.7296990504822
F72.63092177080705
tp230
a(F634.0760698877963
F76.16375657238954
tp231
a(F627.7835815484502
F78.36580901128356
tp232
a(F621.4698920437525
F76.22530222953438
tp233
a(F618.440835255244
F70.28650947204271
tp234
a(F619.6283840936842
F63.72646585932459
tp235
a(F625.0567920574688
F59.856474719390974
tp236
a(F626.9577025147036
F53.466562053476046
tp237
a(F631.5737645640353
F48.65652924681416
tp238
a(F633.8581917017023
F42.393475910211066
tp239
a(F637.547311946539
F36.840563497469475
tp240
a(F637.4035938157226
F30.17544612841144
tp241
a(F632.6546078542624
F25.496602597975954
tp242
a(F626.2290462023883
F23.719919761223913
tp243
a(F619.6840208295051
F22.452210286320604
tp244
a(F613.4515637729322
F24.818837312790794
tp245
a(F607.3477378244098
F22.137838761021484
tp246
a(F602.1126994752007
F18.010028454484413
tp247
a(F596.856115576785
F13.909690643600804
tp248
a(F595.8690681687565
F7.316498559431819
tp249
a(F591.6468796404162
F2.1572768666184707
tp250
a(F588.5587003331295
F-3.750987938761445
tp251
a(F589.4165001114194
F-10.362237743814214
tp252
a(F587.3938401508885
F-16.714661779448942
tp253
a(F583.2937089982763
F-21.971406872738477
tp254
a(F579.7824451400375
F-27.6384581838058
tp255
a(F576.7915280367218
F-33.59655010366895
tp256
a(F572.722579345469
F-38.877468678348535
tp257
a(F571.3090452697505
F-45.39255623426267
tp258
a(F568.7749896376425
F-51.55883602825727
tp259
a(F566.9033830810929
F-57.9573931579487
tp260
a(F566.7948055501652
F-64.6231755849577
tp261
a(F571.0742172619169
F-69.73503237537797
tp262
a(F577.3351966753191
F-72.02513744488856
tp263
a(F580.4240363379973
F-77.9330570434199
tp264
a(F586.6621299172136
F-80.28478681985781
tp265
a(F590.5775179428297
F-85.68054265693083
tp266
a(F594.0812434311057
F-91.35225775443433
tp267
a(F597.0847629085538
F-97.30400667328453
tp268
a(F601.1761060132335
F-102.56759442730124
tp269
a(F606.6749095563814
F-106.33689197967209
tp270
a(F611.47746049521
F-110.96073766528922
tp271
a(F615.1726536423436
F-116.50961070851353
tp272
a(F616.1383997364667
F-123.10595658529488
tp273
a(F621.1114084811027
F-127.54595979139941
tp274
a(F625.0929305871203
F-132.89310166007442
tp275
a(F630.7766927154148
F-136.37725041025863
tp276
a(F635.3408574597782
F-141.236555363722
tp277
a(F638.7214478779744
F-146.9825150632713
tp278
a(F635.6808791002765
F-152.91542210388243
tp279
a(F629.0268986398708
F-152.50434002329172
tp280
a(F625.6837046623765
F-146.73654161546827
tp281
a(F620.9159196565723
F-142.07685594121153
tp282
a(F616.9318401126365
F-136.73161931108598
tp283
a(F614.5826654244282
F-130.49256307406372
tp284
a(F615.9174085917128
F-123.96087836628492
tp285
a(F615.8095092891247
F-117.29508492627004
tp286
a(F613.3114238627231
F-111.11414538224886
tp287
a(F614.0442536364174
F-104.48787909064605
tp288
a(F616.4503374256507
F-98.27054805203846
tp289
a(F616.742584649128
F-91.61029009871457
tp290
a(F619.0643092982205
F-85.3609670075117
tp291
a(F625.1071152568448
F-82.54512954933725
tp292
a(F631.4716378165202
F-80.56086720986994
tp293
a(F636.6633393513558
F-76.37868122433198
tp294
a(F639.9433913038515
F-70.57474259324934
tp295
a(F638.9580402329264
F-63.98129677854281
tp296
a(F633.3992048268865
F-67.66148609065732
tp297
a(F629.4737850393573
F-73.04994820299683
tp298
a(F623.3752090807375
F-75.74286775645353
tp299
a(F618.6186124074877
F-80.41397389231402
tp300
a(F612.0241961947512
F-81.3928095565815
tp301
a(F607.5141924541483
F-86.30242366608057
tp302
a(F607.4100396833101
F-92.96827669812164
tp303
a(F608.2838872085413
F-99.57742452118413
tp304
a(F606.1409865843051
F-105.89030194428466
tp305
a(F602.3262620685
F-111.35768900877538
tp306
a(F601.7106421661636
F-117.99587073122707
tp307
a(F605.2854634851875
F-123.62304559802271
tp308
a(F605.4371509433942
F-130.28798635991004
tp309
a(F608.4626458871007
F-136.22859447609227
tp310
a(F614.1294072855693
F-139.74032619951174
tp311
a(F620.6298689220237
F-141.2196648887341
tp312
a(F627.1181242119179
F-142.75165305370268
tp313
a(F633.7529636946874
F-142.10099993388553
tp314
a(F627.1018101276399
F-141.64646646757666
tp315
a(F625.6126541020758
F-135.1482468055484
tp316
a(F624.5412200987441
F-128.56824121125373
tp317
a(F620.3294541977913
F-123.4005074294094
tp318
a(F617.9830689297844
F-117.1604016115146
tp319
a(F619.136889477169
F-110.59434171315262
tp320
a(F617.0287194414084
F-104.26978136916304
tp321
a(F614.0065879914217
F-98.32746145658294
tp322
a(F611.8474700071032
F-92.02011225313487
tp323
a(F607.9066067639415
F-86.64293442985797
tp324
a(F605.9543264491656
F-80.26852888761461
tp325
a(F602.2414934192888
F-74.73144343254896
tp326
a(F603.1087820872403
F-68.12143172220478
tp327
a(F600.7583720852832
F-61.88284075411396
tp328
a(F594.8972508504294
F-58.70609677406308
tp329
a(F588.4933394245534
F-60.559300188149024
tp330
a(F583.2837752683055
F-64.71921433947254
tp331
a(F578.2080751113035
F-69.0414489884307
tp332
a(F575.1852570753553
F-74.9834196687682
tp333
a(F574.3838165272839
F-81.6017379968899
tp334
a(F571.5816869139431
F-87.65091265749304
tp335
a(F571.6078388273684
F-94.31752802976919
tp336
a(F566.9706577529159
F-99.10720402373623
tp337
a(F562.3206122711075
F-103.88439163378017
tp338
a(F555.6662280958176
F-104.2888859997429
tp339
a(F549.9466379036717
F-107.71390168997752
tp340
a(F546.1100665494624
F-113.16598062268801
tp341
a(F541.6411915312049
F-118.11306062160025
tp342
a(F538.9059553556359
F-124.19277504814231
tp343
a(F539.6418082067629
F-130.81870630540215
tp344
a(F538.3081883231847
F-137.3506204544529
tp345
a(F539.5864180346089
F-143.89359938222555
tp346
a(F535.9043538693207
F-149.4511930995771
tp347
a(F532.8566058069272
F-155.3804153245085
tp348
a(F529.0945134396165
F-160.88415091629224
tp349
a(F525.9835935888019
F-166.7804736793584
tp350
a(F520.6280813185507
F-170.75072968717865
tp351
a(F515.7443328450103
F-175.288729829492
tp352
a(F509.39410838827035
F-177.3182849022768
tp353
a(F505.3124411493428
F-182.58937938019218
tp354
a(F500.0279021054088
F-186.65362488675078
tp355
a(F498.69871329028246
F-193.18644216095853
tp356
a(F499.99763346497946
F-199.72534503714576
tp357
a(F502.648913744019
F-205.8421380961286
tp358
a(F508.43571685138215
F-209.15232755310186
tp359
a(F514.8988490874373
F-207.51759022138492
tp360
a(F518.6973506557238
F-202.0389197366624
tp361
a(F518.8092705813816
F-195.3731925914302
tp362
a(F515.7929805533246
F-189.4279054737976
tp363
a(F515.435938462374
F-182.77080660193653
tp364
a(F512.7478625515794
F-176.67009415647163
tp365
a(F510.969576549362
F-170.24497599889958
tp366
a(F507.48206816421305
F-164.5632746948921
tp367
a(F506.90360701359305
F-157.92175174140712
tp368
a(F507.3863945853683
F-151.27258934265464
tp369
a(F509.4942957134115
F-144.94793936982305
tp370
a(F510.14653909824176
F-138.3132560306282
tp371
a(F514.1987561707974
F-133.01948787917573
tp372
a(F519.4118113593299
F-128.8639494007401
tp373
a(F522.1381632787818
F-122.78024578733603
tp374
a(F519.9158450186543
F-116.4948861321414
tp375
a(F520.4327508713205
F-109.84828904912789
tp376
a(F517.8154138526188
F-103.71689513134882
tp377
a(F512.0440935336075
F-100.37978467171303
tp378
a(F507.3200408139945
F-95.67576826583583
tp379
a(F505.7244192336917
F-89.20286812626033
tp380
a(F501.4952155581137
F-84.04939544127188
tp381
a(F501.27572472319395
F-77.38634297128257
tp382
a(F498.95144617237855
F-71.13796928986243
tp383
a(F493.05090150567344
F-68.03506466988739
tp384
a(F490.2990760177316
F-61.962840948024194
tp385
a(F486.16003008367096
F-56.73668144029955
tp386
a(F480.05793045286543
F-54.05175601486082
tp387
a(F475.51223470858866
F-49.175169642724185
tp388
a(F468.99334130846887
F-47.77929239800712
tp389
a(F462.4092372530168
F-48.82524566246183
tp390
a(F455.75545900126133
F-48.41090350806477
tp391
a(F449.25092072805813
F-49.87221329619303
tp392
a(F442.9768761651005
F-47.61814824245874
tp393
a(F437.50115914902534
F-43.815390347942035
tp394
a(F431.55935789854715
F-40.79223928584474
tp395
a(F424.9070461161802
F-40.354983760291795
tp396
a(F418.46374687750756
F-42.0662228918467
tp397
a(F412.0942716391959
F-40.09791660648898
tp398
a(F405.4560415062201
F-40.713014278486725
tp399
a(F399.1816164900292
F-38.460008472759064
tp400
a(F393.04541727837454
F-35.85395711498945
tp401
a(F386.5003130152261
F-37.12125922141879
tp402
a(F379.8429706309497
F-36.76878677857872
tp403
a(F374.5637783148381
F-32.697598630881245
tp404
a(F371.68921329192034
F-26.68250757808227
tp405
a(F365.7219559066687
F-23.709918850625318
tp406
a(F359.0695883977721
F-23.273511963624937
tp407
a(F353.5644433371508
F-27.03354152547168
tp408
a(F349.9190126967736
F-32.615233015570674
tp409
a(F347.9087646487868
F-38.971595751444845
tp410
a(F350.80763843278464
F-44.97500938277949
tp411
a(F356.6256757329148
F-48.229988095265796
tp412
a(F362.2354854671748
F-51.83199853248639
tp413
a(F367.10717599312227
F-56.382940837530256
tp414
a(F373.6719420771639
F-57.54410004550358
tp415
a(F380.3385953205023
F-57.53072179710203
tp416
a(F386.5668289017689
F-55.15300211185153
tp417
a(F390.160735332659
F-49.537997124280174
tp418
a(F392.49124313132603
F-43.291944143013005
tp419
a(F394.24627796485424
F-36.86043598570286
tp420
a(F393.9632164149901
F-30.199781317921847
tp421
a(F396.90000547360074
F-24.21482396889511
tp422
a(F396.3096968803248
F-17.574343548838968
tp423
a(F392.106576745339
F-12.399575382503269
tp424
a(F389.8541309846978
F-6.124949294853592
tp425
a(F390.385463408438
F0.520510079781606
tp426
a(F394.5633281396031
F5.7156896467004925
tp427
a(F398.34857983197963
F11.203522923122499
tp428
a(F401.0320567138487
F17.30625970828035
tp429
a(F403.04014118305344
F23.663306287391066
tp430
a(F408.1545039132783
F27.93972281389216
tp431
a(F408.79293169792265
F34.57574981867737
tp432
a(F412.50158875617984
F40.1156331449473
tp433
a(F417.36211372982166
F44.67849862894402
tp434
a(F421.62327372558997
F49.805579663500474
tp435
a(F422.02236854292664
F56.460289857883055
tp436
a(F424.02973004377225
F62.81756476537033
tp437
a(F428.1956842724338
F68.02230009093117
tp438
a(F431.6571767514486
F73.71988855116312
tp439
a(F434.05599855824056
F79.94002507568602
tp440
a(F436.09141342442774
F86.28837374025609
tp441
a(F433.5976315724118
F92.47105087229205
tp442
a(F428.3118584088105
F96.53369120924003
tp443
a(F421.65501216829864
F96.17196952807159
tp444
a(F415.3968939713254
F98.46988185824372
tp445
a(F409.12862921026226
F96.19979346136182
tp446
a(F404.53707152184154
F91.36636378479166
tp447
a(F398.6782474962002
F88.18538508618137
tp448
a(F393.58927621592443
F83.87878367056683
tp449
a(F386.9361296083557
F83.45441983770509
tp450
a(F380.67268962733027
F85.73778666074004
tp451
a(F374.21946942811553
F84.06434902972688
tp452
a(F369.9729790869345
F78.9251113210097
tp453
a(F363.66608580599484
F76.76466192625814
tp454
a(F358.4722063111333
F72.58518106886679
tp455
a(F352.21407660264884
F70.2873000893056
tp456
a(F346.9041831487194
F66.25623621579005
tp457
a(F344.56337899131006
F60.014034653752866
tp458
a(F338.7711513898979
F56.71334626223761
tp459
a(F333.401971137909
F52.7615937565641
tp460
a(F330.5991410462556
F46.71274362436817
tp461
a(F326.1537085263878
F41.74458761275322
tp462
a(F320.2044459508562
F38.736146280132026
tp463
a(F313.7186240731377
F40.278404045537066
tp464
a(F308.0016301527245
F36.849056446006934
tp465
a(F301.519868078502
F35.28982430882677
tp466
a(F294.9544355628176
F36.447209433337385
tp467
a(F288.37744097758394
F37.536973935535684
tp468
a(F281.71122183767073
F37.614219149622805
tp469
a(F275.21942726582796
F36.097298689797356
tp470
a(F268.55757944048577
F35.84386626008957
tp471
a(F261.9091396303948
F35.35122791805513
tp472
a(F255.34180039528889
F36.49774430061702
tp473
a(F250.99475496587272
F41.55221167898998
tp474
a(F250.4142310933216
F48.193554651449894
tp475
a(F249.45555605561205
F54.79093190430705
tp476
a(F246.45625974669878
F60.74481014422627
tp477
a(F241.43395378968793
F65.12897338464262
tp478
a(F236.63839894039685
F69.76007456383157
tp479
a(F230.37346055592548
F72.03932695951346
tp480
a(F223.73243859690163
F71.45514224197332
tp481
a(F218.45473917988042
F75.52826552859483
tp482
a(F214.63811440722213
F80.99432624808702
tp483
a(F208.94665783768215
F84.4658916819345
tp484
a(F202.75507515895728
F86.93747991158736
tp485
a(F196.0885036728965
F86.90185596338222
tp486
a(F190.09666949725008
F83.97912305461347
tp487
a(F183.61868229255504
F85.5539647038759
tp488
a(F177.51105379912403
F88.22628927822576
tp489
a(F173.9811195207339
F93.88172988304966
tp490
a(F173.60118722696828
F100.5375616039241
tp491
a(F170.7610499196319
F106.56898469635597
tp492
a(F165.36743140789744
F110.48731645800146
tp493
a(F158.72902050571608
F109.8741728057927
tp494
a(F152.40009372341763
F111.9691979199023
tp495
a(F147.83453734881635
F116.82719539157537
tp496
a(F141.29185527583874
F118.1069437013542
tp497
a(F134.83046707011815
F116.4653265415331
tp498
a(F128.26717376875558
F117.63478175005281
tp499
a(F121.91653716870424
F115.60651667404998
tp500
a(F115.8392186431912
F118.34707208927158
tp501
a(F110.91087151799965
F122.83659757177645
tp502
a(F104.9993699946757
F125.91857651138376
tp503
a(F100.66251270412396
F130.9817882673577
tp504
a(F96.54121648801579
F136.22195638904395
tp505
a(F91.62190535062288
F140.72138106092885
tp506
a(F86.29812303779741
F144.7340841810327
tp507
a(F80.16837133945846
F147.35526493808766
tp508
a(F73.86579795322753
F145.18224557424895
tp509
a(F69.89463014539581
F139.82740937820284
tp510
a(F63.83868335695224
F137.03994584660563
tp511
a(F57.17206518986602
F137.01451636134846
tp512
a(F50.51536346853068
F136.65014479602598
tp513
a(F44.77697485590739
F140.0435708781677
tp514
a(F38.17018449229774
F140.935067112461
tp515
a(F32.74273074768232
F144.80639637958677
tp516
a(F29.147196049605117
F150.420358855358
tp517
a(F28.78250743319476
F157.07704321451948
tp518
a(F32.9413996899842
F162.28742320458366
tp519
a(F32.657633870394235
F168.94804790532135
tp520
a(F29.12308128900306
F174.60060330034628
tp521
a(F30.611492876762973
F181.0989935156124
tp522
a(F30.97422737986907
F187.7557846438288
tp523
a(F26.689828442564494
F192.86346221690133
tp524
a(F27.24791365338547
F199.50672838211761
tp525
a(F25.7307678229242
F205.99847028807463
tp526
a(F23.727222037439077
F212.35694877981376
tp527
a(F19.39295307426179
F217.42237640236277
tp528
a(F13.532898082606417
F220.6010868231497
tp529
a(F8.16153713865917
F224.54987474532058
tp530
a(F1.7162637065607607
F226.25366312124373
tp531
a(F-2.5451504244705854
F231.38053293120487
tp532
a(F-3.8103023517128527
F237.92605315846257
tp533
a(F-8.651977383689609
F242.50891550956774
tp534
a(F-15.067078061743905
F244.32300694465908
tp535
a(F-21.577950048231138
F242.89018091892524
tp536
a(F-26.933624883442643
F238.9201442057541
tp537
a(F-32.824034478225606
F235.79804246972222
tp538
a(F-36.92137099247039
F230.53911882191358
tp539
a(F-38.07741240781734
F223.9734495726712
tp540
a(F-40.6228102134401
F217.81184308932814
tp541
a.