(lp0
(I0
I0
tp1
a(F-174.0873888515505
F98.4559853073903
tp2
a(F-40.91753547148423
F-50.761272912735365
tp3
a(F101.43286950489477
F89.72489082968053
tp4
a(F295.02771144229143
F139.93482187160095
tp5
a(F96.53698951537942
F164.45895914354776
tp6
a(F-89.2634019632898
F238.47392064710638
tp7
a(F-285.1001260201223
F279.0692099143115
tp8
a(F-92.32495356914913
F332.3395852320955
tp9
a(F-137.44820979546918
F137.49633606104038
tp10
a(F-5.617512205946753
F-12.905350010159907
tp11
a(F-113.37205981505436
F155.58487958656346
tp12
a(F-13.985472006636599
F329.1426687053456
tp13
a(F172.70762817404017
F400.8761082222668
tp14
a(F339.9034980614771
F510.62828857684224
tp15
a(F157.6901116734828
F428.1765947129834
tp16
a(F86.45719869392182
F241.2919455080626
tp17
a(F246.69387563213763
F121.60816480324922
tp18
a(F150.31248480220728
F296.8526440363715
tp19
a(F-41.836398634869454
F352.33963885393837
tp20
a(F50.00574052081167
F174.67416253591955
tp21
a(F-149.75956162370272
F164.9878805293458
tp22
a(F-223.40738268985191
F350.93410515412404
tp23
a(F-299.4356102586379
F165.94840675354797
tp24
a(F-198.2782894705681
F-6.583319172380044
tp25
a.