(lp0
(I0
I0
tp1
a(F4.167883442959718
F-5.203190564485093
tp2
a(F10.35559791284366
F-7.684447117853435
tp3
a(F16.971065438179366
F-6.859805458905077
tp4
a(F23.49179639617993
F-5.472537561987725
tp5
a(F30.099565002608628
F-4.588321248894718
tp6
a(F36.297167560583524
F-7.044775396202878
tp7
a(F42.293135875798654
F-9.959017734681378
tp8
a(F47.36390482527197
F-14.287036531486873
tp9
a(F54.02040268312064
F-13.918959483981169
tp10
a(F60.487324161128136
F-12.299277094828952
tp11
a(F66.97816208448
F-13.820285805264751
tp12
a(F72.40539858499201
F-17.691919622137753
tp13
a(F77.05064299537253
F-22.473775832049665
tp14
a(F83.63060438526726
F-23.545481272895728
tp15
a(F90.22380487220306
F-24.53247255123306
tp16
a(F96.00712545393627
F-27.848742668902226
tp17
a(F100.2679020442299
F-32.976142330724024
tp18
a(F104.51594338447897
F-38.114098073622095
tp19
a(F109.82257457862313
F-42.149455531615196
tp20
a(F112.00800330651913
F-48.44773670346925
tp21
a(F110.71355164569508
F-54.98752564060127
tp22
a(F113.43881385059584
F-61.07171748167465
tp23
a(F112.66507147315953
F-67.69333112019235
tp24
a(F111.33246757630525
F-74.22545262078718
tp25
a(F114.32967041364539
F-80.18038499624575
tp26
a(F117.3668598499462
F-86.11502270822676
tp27
a(F119.77148089236881
F-92.33291962654108
tp28
a(F124.73359973852695
F-96.7850899962649
tp29
a(F131.2028424160588
F-98.39547616847487
tp30
a(F137.68756160030634
F-96.84858847187361
tp31
a(F144.144832199459
F-95.19084878972713
tp32
a(F149.95397079193037
F-98.46168251492686
tp33
a(F156.47769129410062
F-97.0885418615311
tp34
a(F161.2000896822228
F-92.38286466177487
tp35
a(F167.53673080776346
F-90.31128949042548
tp36
a(F174.02864882169666
F-91.82768157191828
tp37
a(F180.6772753448685
F-92.31779359974519
tp38
a(F186.92853134908106
F-94.63430883048312
tp39
a(F191.61576782396344
F-99.37501117011347
tp40
a(F197.76055469794977
F-101.96074872789649
tp41
a(F201.62214959538466
F-107.39513271253995
tp42
a(F206.77572657038235
F-111.62420930291026
tp43
a(F211.36325213670983
F-116.46146613118971
tp44
a(F216.38288058744553
F-120.84869471664194
tp45
a(F223.048599064437
F-120.96112971981624
tp46
a(F227.68279932878897
F-125.75368982422022
tp47
a(F228.58924862265636
F-132.3584452415004
tp48
a(F230.1273005389692
F-138.84526578373607
tp49
a(F228.43461367986387
F-145.29346364371654
tp50
a(F225.24532005970633
F-151.1477655362454
tp51
a(F226.03188947297363
F-157.76786772598211
tp52
a(F223.46420191500587
F-163.92021890655545
tp53
a(F221.27498617410282
F-170.2171847540273
tp54
a(F220.69070916688432
F-176.85819859404302
tp55
a(F216.9758207962581
F-182.39390530938033
tp56
a(F214.77960314210122
F-188.688432492578
tp57
a(F212.2020346918285
F-194.83665055382167
tp58
a(F210.02306495409465
F-201.13716920917733
tp59
a(F210.81094792378252
F-207.7571151961564
tp60
a(F215.20313947091998
F-212.7724016144678
tp61
a(F219.11517989598119
F-218.17058502716614
tp62
a(F225.07389217483228
F-221.16026601722405
tp63
a(F231.43020262425856
F-223.17067938639937
tp64
a(F238.06039682827975
F-223.86707673088617
tp65
a(F243.35197174718857
F-219.81199605079857
tp66
a(F244.90344546559203
F-213.32837254649576
tp67
a(F243.8601242356549
F-206.7438509043712
tp68
a(F246.99982027192328
F-200.86280055224148
tp69
a(F248.99423821101968
F-194.5014530905275
tp70
a(F253.62766390363183
F-189.70814412953968
tp71
a(F256.17977090754323
F-183.5493135355851
tp72
a(F257.72524010280534
F-177.06425614100945
tp73
a(F262.8329235874679
F-172.77986425126014
tp74
a(F269.4839980743376
F-173.23555341566475
tp75
a(F276.0289533268135
F-174.5036248598399
tp76
a(F282.24298816518063
F-176.91820877265062
tp77
a(F288.6620801273427
F-178.71812622235518
tp78
a(F294.0805107092879
F-182.6020745321406
tp79
a(F298.7178553192402
F-187.3915921918837
tp80
a(F305.2534852939499
F-188.70688123924964
tp81
a(F310.34773603150734
F-193.0072363254419
tp82
a(F315.5348595394257
F-197.19509904502158
tp83
a(F317.2983445394122
F-203.62429534776948
tp84
a(F322.57829830579925
F-207.69449591644658
tp85
a(F324.15120474449697
F-214.17295327754326
tp86
a(F329.5084190901216
F-218.14091231204426
tp87
a(F333.15476731481846
F-223.72200441562887
tp88
a(F338.03867414695486
F-228.2598341281077
tp89
a(F340.80329940098164
F-234.32624094345087
tp90
a(F346.6628337683662
F-237.50591096436236
tp91
a(F353.25565558417986
F-236.51639343072486
tp92
a(F358.82860915946804
F-232.8576186505386
tp93
a(F364.8926230749983
F-230.08774867584674
tp94
a(F368.2652493871413
F-224.33711078052718
tp95
a(F372.6117388555218
F-219.28216530646898
tp96
a(F378.6963834055605
F-216.5579140067301
tp97
a(F382.7601586153963
F-211.27301329920792
tp98
a(F389.2849427481237
F-209.9049356458005
tp99
a(F394.01884958065585
F-205.21083610005695
tp100
a(F400.43688834934625
F-203.40716683768332
tp101
a(F406.2996331035295
F-200.23342009420475
tp102
a(F412.84545129689076
F-201.49702945785543
tp103
a(F417.7813887361836
F-205.9782085482101
tp104
a(F424.4264165410601
F-206.5149113680854
tp105
a(F429.932990277282
F-202.7569744165126
tp106
a(F434.7812590714843
F-198.18108825713227
tp107
a(F438.50926598183133
F-192.65420767936968
tp108
a(F438.9258811695202
F-186.00057136305125
tp109
a(F441.0321341479665
F-179.6753723278247
tp110
a(F444.2159467546791
F-173.81808782647238
tp111
a(F446.91987894705653
F-167.72438655848512
tp112
a(F452.3376296114486
F-163.83948988252016
tp113
a(F458.84718391156775
F-162.4006892506588
tp114
a(F465.5103783433747
F-162.18555113599513
tp115
a(F471.94584712076045
F-163.92600684061338
tp116
a(F478.5220763187595
F-165.02038062494364
tp117
a(F485.0525072512228
F-166.36124463026684
tp118
a(F491.59914293449714
F-165.10187745786502
tp119
a(F498.0868728301037
F-163.56766585378384
tp120
a(F502.476832058897
F-158.55042533593172
tp121
a(F507.8078925387296
F-154.54739665694234
tp122
a(F513.5922842937151
F-151.23299528274225
tp123
a(F519.8433292147264
F-148.91591051089142
tp124
a(F526.1633405747993
F-146.7941421792884
tp125
a(F532.821455107197
F-146.4565694939018
tp126
a(F539.3606241718121
F-145.15899005940616
tp127
a(F545.9907891094603
F-145.8556659840834
tp128
a(F550.7658388755195
F-150.50790675344413
tp129
a(F556.1580100955254
F-154.42822995167484
tp130
a(F561.6677786832197
F-158.18148114956998
tp131
a(F564.5341454841463
F-164.2004832102932
tp132
a(F563.180425531162
F-170.72826129577808
tp133
a(F563.5101811213947
F-177.38676756183767
tp134
a(F566.0352326648554
F-183.55673994000205
tp135
a(F565.8348638588677
F-190.22039485198778
tp136
a(F566.1830827091889
F-196.87796107972636
tp137
a(F565.0952792208997
F-203.45528029163256
tp138
a(F565.7384786615487
F-210.09084650138385
tp139
a(F564.3246262741839
F-216.60586498725075
tp140
a(F563.8580970344434
F-223.2561879051933
tp141
a(F561.6433805903266
F-229.5442301694122
tp142
a(F555.8024145732844
F-232.7578823646883
tp143
a(F549.4536662814808
F-234.7920503940714
tp144
a(F542.7871259293697
F-234.83308913332309
tp145
a(F536.1871562479386
F-233.8924273191548
tp146
a(F531.6201467950092
F-229.03579586296024
tp147
a(F531.0259113295057
F-222.39566569435794
tp148
a(F535.2910211030279
F-217.27186992713132
tp149
a(F538.0084629847557
F-211.18418119791102
tp150
a(F537.0879953295167
F-204.58136484879884
tp151
a(F533.3044825071739
F-199.09233258731487
tp152
a(F529.2784958875399
F-193.77858850399923
tp153
a(F527.8345651367246
F-187.27017022984887
tp154
a(F523.0102619808024
F-182.66902433950762
tp155
a(F519.980040581471
F-176.73082573088237
tp156
a(F514.0681536675787
F-173.6495861164101
tp157
a(F508.6572945863857
F-169.75509661868185
tp158
a(F504.34628655277214
F-164.66985776700895
tp159
a(F497.726592088435
F-163.8798643219295
tp160
a(F492.5458201960746
F-159.68414661886922
tp161
a(F487.469226951582
F-155.3629609627771
tp162
a(F480.82230470939635
F-154.85025329677023
tp163
a(F475.6214781108738
F-150.67942038995835
tp164
a(F472.0485513123711
F-145.05104242317378
tp165
a(F466.08105197208334
F-142.07893945253005
tp166
a(F461.27014330015527
F-137.46379024640336
tp167
a(F457.11856160294275
F-132.24758340082926
tp168
a(F450.71172582940255
F-130.40451535668927
tp169
a(F444.76209784699597
F-127.3967967336447
tp170
a(F441.1723673679306
F-121.7791210993531
tp171
a(F440.004100695853
F-115.2156161342177
tp172
a(F438.4391494628137
F-108.73523249722112
tp173
a(F435.11486394170527
F-102.95651549267822
tp174
a(F435.4572602090903
F-96.29864727225471
tp175
a(F439.22303238339174
F-90.7974288276098
tp176
a(F445.3103604976081
F-88.07917923010854
tp177
a(F451.7823231792102
F-89.67859896626095
tp178
a(F457.43461324245885
F-93.21357583822841
tp179
a(F463.67229269908296
F-95.56640380492169
tp180
a(F470.3256532009923
F-95.14540680246537
tp181
a(F476.92991725991874
F-96.05542915626587
tp182
a(F483.533094729375
F-96.973302650441
tp183
a(F490.0914520563575
F-95.77647617343628
tp184
a(F496.46634548167276
F-93.82578956090289
tp185
a(F502.3236837445279
F-90.64207586163008
tp186
a(F508.5858655553189
F-88.35526073726103
tp187
a(F514.7297615556807
F-90.94311436163444
tp188
a(F521.3646839300994
F-90.29330705951855
tp189
a(F527.0689163186094
F-93.74383996072653
tp190
a(F530.4756822354213
F-99.47431903603015
tp191
a(F535.1315525604485
F-104.2458299037717
tp192
a(F541.1608691487664
F-107.09043636553034
tp193
a(F545.2985148160805
F-112.31770455993191
tp194
a(F550.4124806278571
F-116.59459573465489
tp195
a(F555.9645882845439
F-120.28492702235849
tp196
a(F558.7780670731125
F-126.32883151785796
tp197
a(F559.8266667639442
F-132.9125146157016
tp198
a(F559.4722076718392
F-139.56975151973833
tp199
a(F558.0361503725239
F-146.07991156980836
tp200
a(F554.8143964397659
F-151.91641275126995
tp201
a(F551.1028786837385
F-157.45437992263683
tp202
a(F546.3327360172153
F-162.11165201963308
tp203
a(F542.9119929077445
F-167.83379855947746
tp204
a(F539.6322434727595
F-173.6379081456379
tp205
a(F537.8927374210591
F-180.0736336789824
tp206
a(F539.6213914077508
F-186.51228259305896
tp207
a(F544.9970805763545
F-190.45517625216286
tp208
a(F551.3666330192267
F-192.4232326847749
tp209
a(F558.0070873140157
F-193.01383509186593
tp210
a(F564.6348380563372
F-193.73311566445327
tp211
a(F571.0334451587094
F-195.604551368376
tp212
a(F577.4676754741794
F-193.8595228035864
tp213
a(F583.9990544377733
F-195.19576128468398
tp214
a(F590.0126242079107
F-192.31801510683317
tp215
a(F596.4838155841721
F-193.92055266216346
tp216
a(F600.3858187846745
F-199.32599579549802
tp217
a(F602.0695415266073
F-205.77654012700546
tp218
a(F607.6135129163321
F-209.47908326306165
tp219
a(F614.2111773050704
F-210.4357802150896
tp220
a(F620.7767848113265
F-211.5921722412801
tp221
a(F626.4011957910999
F-215.17134052106917
tp222
a(F632.5999564775412
F-217.62487071176858
tp223
a(F638.9778573157917
F-215.68403961610645
tp224
a(F632.9088785720617
F-212.92506490571174
tp225
a(F632.8989288637314
F-206.2584056638014
tp226
a(F633.1091667440263
F-199.59505481920874
tp227
a(F635.2468496345546
F-193.28040864511576
tp228
a(F639.6680645293364
F-188.29068888358577
tp229
a(F634.261410307954
F-184.390363951628
tp230
a(F630.8883582101771
F-178.63997579167497
tp231
a(F632.4958101569414
F-172.17000340508102
tp232
a(F630.3468738210383
F-165.8591780178056
tp233
a(F624.4971443175004
F-162.66150555492214
tp234
a(F620.6478835854226
F-157.2183781210907
tp235
a(F617.9321715299297
F-151.1299175212268
tp236
a(F616.670749940687
F-144.58367737755373
tp237
a(F613.3103371194898
F-138.82589393984284
tp238
a(F607.0387700541487
F-136.56494480521508
tp239
a(F600.8729429693551
F-134.0297878465891
tp240
a(F595.7249535256626
F-129.79391141637126
tp241
a(F589.451770485068
F-127.53744980942098
tp242
a(F582.787731152395
F-127.35030222853179
tp243
a(F577.8737031549706
F-131.85549626264094
tp244
a(F577.1682705581389
F-138.4847352307105
tp245
a(F572.8777669073436
F-143.58728585436492
tp246
a(F569.2554195614753
F-149.1839852522534
tp247
a(F563.8734222696229
F-153.11826404193488
tp248
a(F562.421804022345
F-159.62497203512268
tp249
a(F563.8752197330605
F-166.1312787613914
tp250
a(F569.4823964668179
F-169.73738656910515
tp251
a(F572.1611754069535
F-175.84218696177408
tp252
a(F572.6286797379703
F-182.4924414038932
tp253
a(F570.2387409990438
F-188.71599643848742
tp254
a(F571.7009948364141
F-195.22032254958765
tp255
a(F572.012492209296
F-201.87970794398646
tp256
a(F568.9182410726221
F-207.7847951023302
tp257
a(F568.8575502244698
F-214.45118550984424
tp258
a(F567.7550851183851
F-221.02606308545808
tp259
a(F563.2016375972713
F-225.89541212993078
tp260
a(F559.5541897096023
F-231.47578562560136
tp261
a(F556.9793617555358
F-237.6251518898112
tp262
a(F551.2263307471778
F-240.99369440272613
tp263
a(F546.5151526764158
F-245.7106050050182
tp264
a(F544.9361166031916
F-252.1875710790301
tp265
a(F546.0525249916907
F-258.760095461224
tp266
a(F550.3583929058657
F-263.84968738495644
tp267
a(F551.1746029437776
F-270.4662004861644
tp268
a(F548.4376674827499
F-276.54515012624313
tp269
a(F543.2929665423408
F-280.78502001554375
tp270
a(F540.8593629603404
F-286.9916308499782
tp271
a(F543.3352563424256
F-293.1814932398049
tp272
a(F548.4495042955548
F-297.45804702975755
tp273
a(F555.0920163524125
F-298.0250373462039
tp274
a(F561.2091639778133
F-300.67549945185607
tp275
a(F564.2523983973456
F-306.6070396154408
tp276
a(F569.7687235061828
F-310.3506477330268
tp277
a(F571.3327176842042
F-316.83126241495006
tp278
a(F576.8001876282038
F-320.6458681424015
tp279
a(F583.2935357660366
F-322.15612454624437
tp280
a(F588.3435805912959
F-326.50830695364823
tp281
a(F592.0189108812491
F-332.070356189694
tp282
a(F597.085338264305
F-336.4034564674011
tp283
a(F603.4153002812611
F-338.4953516149498
tp284
a(F608.1887240968782
F-343.14926067303674
tp285
a(F611.5629526006577
F-348.8989586171662
tp286
a(F614.2248642842027
F-355.01113258666766
tp287
a(F619.6255130643399
F-358.91976881917225
tp288
a(F623.9952600682007
F-363.9546228951802
tp289
a(F630.5968314910284
F-364.8839770761834
tp290
a(F637.1432996521606
F-363.62373937649073
tp291
a(F630.617143560154
F-364.98525731879215
tp292
a(F631.514556479063
F-358.37926802895674
tp293
a(F632.9553013463794
F-351.8701437659129
tp294
a(F635.8115569614895
F-345.84633697073787
tp295
a(F630.878758405197
F-341.36170288895556
tp296
a(F627.3464985971239
F-335.7077144654871
tp297
a(F626.71920785444
F-329.07062543726187
tp298
a(F624.1599147637482
F-322.9147775411243
tp299
a(F620.3333682915919
F-317.4556579655084
tp300
a(F616.4588453386482
F-312.0304836520364
tp301
a(F610.3325229437148
F-309.4012977784661
tp302
a(F603.7687209926945
F-310.56789470638364
tp303
a(F598.5436141955698
F-314.70826949655486
tp304
a(F592.628067577309
F-317.78247714270174
tp305
a(F586.6787670040192
F-320.79084333269554
tp306
a(F580.0170328691609
F-320.53443982080756
tp307
a(F573.5840888815719
F-322.2842044041123
tp308
a(F567.1404848193838
F-323.9942953766041
tp309
a(F561.4045288392985
F-327.3918317544767
tp310
a(F554.78940305758
F-328.2192103476785
tp311
a(F549.7227130146662
F-332.5520034945392
tp312
a(F546.2120205964229
F-338.2194088258115
tp313
a(F540.5331461268714
F-341.7115183893161
tp314
a(F535.9734745650861
F-346.5750397157925
tp315
a(F532.5742463733027
F-352.309993259164
tp316
a(F526.182262655814
F-354.20392794647637
tp317
a(F522.542250442637
F-359.7891544890946
tp318
a(F521.9599546173691
F-366.43034233588224
tp319
a(F519.9094475697212
F-372.7738323289374
tp320
a(F518.1513707350084
F-379.20450960957356
tp321
a(F518.8615705934975
F-385.83323954866796
tp322
a(F520.2638390347097
F-392.350761137679
tp323
a(F525.8476723838324
F-395.9929101700045
tp324
a(F532.3145531422299
F-397.6127551320653
tp325
a(F538.6275683428063
F-399.7552498279131
tp326
a(F545.2587320010965
F-400.4423546098903
tp327
a(F551.8246536199928
F-401.59696178939123
tp328
a(F557.457502777623
F-398.0310881500386
tp329
a(F561.6166411919393
F-392.8209046508706
tp330
a(F561.5822106709021
F-386.1543268943552
tp331
a(F563.6070340081221
F-379.8025921000259
tp332
a(F565.9256711097354
F-373.55212280280773
tp333
a(F565.0141581506455
F-366.94806431049744
tp334
a(F559.8550637146182
F-362.72572028796725
tp335
a(F554.9515754676781
F-358.20905697789357
tp336
a(F549.4061465374157
F-354.5086972083775
tp337
a(F543.4249500303921
F-351.5642562106984
tp338
a(F536.7780449138107
F-351.0513265706809
tp339
a(F530.832840723769
F-354.0677800483852
tp340
a(F525.853780257809
F-358.5009957346291
tp341
a(F520.7355490562866
F-362.7727815218856
tp342
a(F514.1105795388419
F-363.5172432988578
tp343
a(F509.1823179659713
F-368.006862694064
tp344
a(F508.39636249885666
F-374.62703780112554
tp345
a(F503.70352555302907
F-379.362196282562
tp346
a(F497.248861591269
F-381.0300564641121
tp347
a(F490.58422482571314
F-381.194559435651
tp348
a(F485.0329579925993
F-377.50296344041874
tp349
a(F479.18230838080314
F-374.3069747726613
tp350
a(F476.5467239628769
F-368.1834023496039
tp351
a(F471.4998564486845
F-363.8275358756823
tp352
a(F468.49846498529433
F-357.8747135427101
tp353
a(F468.93194269293076
F-351.22215452219575
tp354
a(F468.70486397799465
F-344.55935633362157
tp355
a(F470.0228779747887
F-338.02427534340427
tp356
a(F472.2819990100509
F-331.75204953493085
tp357
a(F478.0843311863266
F-328.4691566398457
tp358
a(F481.3582009241309
F-322.6617285185227
tp359
a(F486.7494710358114
F-318.7401661988157
tp360
a(F492.34638813588765
F-315.11815523537035
tp361
a(F498.8960027817433
F-313.87437372914115
tp362
a(F504.8483013808299
F-310.87194374132207
tp363
a(F508.98941720549453
F-305.6474242255047
tp364
a(F513.0291335629072
F-300.34411052593
tp365
a(F515.7253059013815
F-294.246971921167
tp366
a(F515.9928130101221
F-287.5856744205882
tp367
a(F519.674781814234
F-282.028017524918
tp368
a(F525.1792650228098
F-278.267019113465
tp369
a(F531.6448792578088
F-276.6421261912629
tp370
a(F538.2454565268324
F-277.5785150848822
tp371
a(F543.3225603956255
F-281.8991007801243
tp372
a(F548.8818724952596
F-285.57856995696295
tp373
a(F555.5239778934995
F-285.00683547040694
tp374
a(F561.321548504346
F-281.71554097481817
tp375
a(F564.3376043644771
F-275.77013505991096
tp376
a(F564.3527916352144
F-269.1034856922562
tp377
a(F565.9071536285819
F-262.620554006821
tp378
a(F570.5273711335047
F-257.8145125326295
tp379
a(F574.9963465514769
F-252.86752323023512
tp380
a(F577.53865867653
F-246.70464293744564
tp381
a(F583.6707720494783
F-244.08899196192286
tp382
a(F590.2876431525341
F-244.90229464234932
tp383
a(F596.0257609019374
F-248.2961787208688
tp384
a(F598.0076383293904
F-254.66144433253
tp385
a(F597.6030094878397
F-261.31582033220343
tp386
a(F593.1565134158295
F-266.2830244880684
tp387
a(F588.8844534829374
F-271.4010268692931
tp388
a(F583.1329722581414
F-274.77221481499777
tp389
a(F577.5321450115829
F-278.38817645730705
tp390
a(F570.8740237050886
F-278.7256155072863
tp391
a(F565.7744454809834
F-283.0196516483403
tp392
a(F559.4237139226306
F-285.0476193793917
tp393
a(F552.9220552325908
F-283.57355061482383
tp394
a(F546.4186420358564
F-282.10724190347236
tp395
a(F541.2493889782227
F-277.89734080361393
tp396
a(F534.7749207478043
F-276.3080939449577
tp397
a(F528.6953656126926
F-279.0436841561519
tp398
a(F522.1808389441532
F-277.6275673780108
tp399
a(F517.0036549579826
F-273.4274232831274
tp400
a(F510.3639649095279
F-274.0265564109853
tp401
a(F504.0657834482524
F-276.21227247792757
tp402
a(F497.40041669768175
F-276.08062702668946
tp403
a(F490.7978892637621
F-277.00316479219447
tp404
a(F485.2924266905581
F-280.76272943447617
tp405
a(F480.9811524042311
F-285.8477425585989
tp406
a(F480.8890731142971
F-292.5137733002629
tp407
a(F480.5191440295
F-299.1701684896027
tp408
a(F479.9933350573624
F-305.81606717746007
tp409
a(F475.8176385812549
F-311.01298966907643
tp410
a(F471.8802053463464
F-316.39267961972246
tp411
a(F469.7631037464037
F-322.7142557886826
tp412
a(F472.3430429201358
F-328.8614794143763
tp413
a(F471.00220762998407
F-335.3919162427307
tp414
a(F469.3611590983191
F-341.8534488907303
tp415
a(F466.78552323642583
F-348.0024768099525
tp416
a(F466.350723563745
F-354.6549495599216
tp417
a(F466.0046858829607
F-361.3126295137735
tp418
a(F468.31712063833925
F-367.56539609717976
tp419
a(F467.02822587707294
F-374.1062824850346
tp420
a(F468.30622690052525
F-380.64930608490795
tp421
a(F467.03348704443147
F-387.19335511461077
tp422
a(F463.16196332815963
F-392.6206701560276
tp423
a(F457.94787951588825
F-396.77491791501524
tp424
a(F453.2826416969453
F-401.53727033132685
tp425
a(F447.0226990144916
F-403.8302077610966
tp426
a(F441.26758933704684
F-407.1951976637599
tp427
a(F435.3158866377172
F-410.1988087276689
tp428
a(F430.4892329263345
F-414.7974887986067
tp429
a(F427.14861620114516
F-420.5667802923544
tp430
a(F427.88401116017536
F-427.19276238549935
tp431
a(F426.11338080455295
F-433.6199944949064
tp432
a(F422.73995707724436
F-439.3701646489519
tp433
a(F419.76055890672495
F-445.3340250586153
tp434
a(F417.96605328750286
F-451.754632041372
tp435
a(F417.66754888295435
F-458.41461248915937
tp436
a(F414.2261089605487
F-464.1243353988037
tp437
a(F415.2908947513164
F-470.7054200863171
tp438
a(F418.96177954425417
F-476.27040429846204
tp439
a(F418.24553934665107
F-482.89848429373836
tp440
a(F415.5004545059753
F-488.9737582515066
tp441
a(F411.07237150637
F-493.95738397913215
tp442
a(F406.9327055887278
F-499.18305240860184
tp443
a(F405.5079929793341
F-505.6957045891715
tp444
a(F400.4096272323533
F-509.99118025019635
tp445
a(F393.7437475988443
F-509.888744143208
tp446
a(F387.2031867282072
F-508.59819854465866
tp447
a(F382.05223418129185
F-504.36592583323386
tp448
a(F378.5069875401666
F-498.7200715402119
tp449
a(F379.2247460735386
F-492.092155794503
tp450
a(F376.2622824396455
F-486.119865307403
tp451
a(F374.61434789064293
F-479.66008542209363
tp452
a(F369.81432049063926
F-475.03362009706865
tp453
a(F365.9613671837925
F-469.5931058511813
tp454
a(F359.8133834998556
F-467.01497841707527
tp455
a(F355.70562006159395
F-461.7641952393269
tp456
a(F353.5193059822824
F-455.4662213436166
tp457
a(F352.81951122221943
F-448.8363848646201
tp458
a(F353.62283144525964
F-442.2182944252487
tp459
a(F351.0361120850828
F-436.07392078783613
tp460
a(F349.9531024606385
F-429.49581052744935
tp461
a(F348.82258012299184
F-422.92569913657275
tp462
a(F343.8683712534267
F-418.46472851111844
tp463
a(F341.98931952217174
F-412.0683538319965
tp464
a(F336.2056350716351
F-408.7527183542841
tp465
a(F329.6212670679394
F-407.70842795580626
tp466
a(F325.44797383805206
F-402.5095753841496
tp467
a(F320.2226312338498
F-398.3694981972902
tp468
a(F316.1731409688731
F-393.0736438716594
tp469
a(F309.77491828888486
F-391.20089429370495
tp470
a(F303.92346763000154
F-388.006372477987
tp471
a(F297.30105952107436
F-388.77328530436307
tp472
a(F291.63646509144434
F-385.25805922454276
tp473
a(F288.7325689833251
F-379.25707331906904
tp474
a(F286.64159304493086
F-372.926807600357
tp475
a(F286.6667118892868
F-366.2601882555839
tp476
a(F290.5782894764756
F-360.86166945652
tp477
a(F296.14247226294697
F-357.1895700075426
tp478
a(F300.2212428657652
F-351.91623379466654
tp479
a(F302.85532997321275
F-345.7920171464067
tp480
a(F307.8538921492796
F-341.3808018244757
tp481
a(F310.00369468652394
F-335.07027145886445
tp482
a(F309.10525912932485
F-328.46442117339745
tp483
a(F308.6738261855916
F-321.8117292325733
tp484
a(F304.01087152380205
F-317.0471412895777
tp485
a(F298.17888939501165
F-313.81721421703975
tp486
a(F295.51791224909334
F-307.7046333322297
tp487
a(F291.7297904394298
F-302.2187808369838
tp488
a(F289.51824611006623
F-295.9296222188772
tp489
a(F286.4918394591219
F-289.9894785145916
tp490
a(F280.18831667504804
F-287.81921471608547
tp491
a(F273.6558750971639
F-289.1502487036212
tp492
a(F267.64308603964855
F-286.2708716539335
tp493
a(F261.0085482471284
F-286.9245938610415
tp494
a(F254.34288110229568
F-286.80915574453513
tp495
a(F247.74022714343047
F-285.8875239612691
tp496
a(F241.08676782939514
F-286.306956436074
tp497
a(F234.75176966170088
F-288.3835504406293
tp498
a(F228.32551018216205
F-286.6093933038227
tp499
a(F223.7795717070361
F-281.73303320382865
tp500
a(F220.81111763165157
F-275.7637179292953
tp501
a(F218.24275340786855
F-269.6116491993122
tp502
a(F214.43447631015042
F-264.1397692672011
tp503
a(F213.32289356699462
F-257.56642702374813
tp504
a(F212.2821273079254
F-250.9815010531371
tp505
a(F209.30163758585152
F-245.01818608065273
tp506
a(F204.4758365948976
F-240.41861118288742
tp507
a(F201.32368315432655
F-234.54422839560326
tp508
a(F195.33440550486503
F-231.6162602123565
tp509
a(F189.2261424478548
F-228.9453864094956
tp510
a(F186.7008437370218
F-222.77551518997166
tp511
a(F181.15325395134352
F-219.07839576881656
tp512
a(F175.83783619340454
F-215.05461912205405
tp513
a(F171.26829690125223
F-210.2003678819635
tp514
a(F165.03082840382285
F-207.84698070854293
tp515
a(F158.52814136816085
F-206.37745501612451
tp516
a(F152.16411781020136
F-204.39159283606742
tp517
a(F145.9014113539511
F-206.6769707670201
tp518
a(F139.7880743938546
F-209.33621044346197
tp519
a(F133.16388636493707
F-210.08759410178175
tp520
a(F127.61868383408863
F-206.386895068313
tp521
a(F124.14936437767106
F-200.69406914845854
tp522
a(F125.1448610542241
F-194.1021475157769
tp523
a(F121.58849443885013
F-188.46329116528364
tp524
a(F118.66269088985435
F-182.47295577925323
tp525
a(F119.75522800865306
F-175.8964211987548
tp526
a(F124.44903596395437
F-171.16222524556542
tp527
a(F129.4967450006011
F-166.80733398104465
tp528
a(F132.88622521855822
F-161.0666137913366
tp529
a(F139.29809029506282
F-159.24111915011053
tp530
a(F145.82581893998835
F-157.88716081151108
tp531
a(F152.25498718975186
F-156.12357354100897
tp532
a(F158.45126617104393
F-153.66378264939996
tp533
a(F165.052080862416
F-154.5984964315873
tp534
a(F171.04324787715973
F-151.6743961860603
tp535
a(F176.777079721926
F-148.27327624986447
tp536
a(F183.44367048290815
F-148.30508929800027
tp537
a(F189.57081639253033
F-150.9323554525123
tp538
a(F195.2982222806112
F-154.34428543972203
tp539
a(F199.07041616912605
F-159.84110249251682
tp540
a(F205.15793935471913
F-162.55891519932925
tp541
a.